TMS320C2000 Assembler PC v22.6.1 Wed Jan 22 15:42:10 2025

Copyright (c) 1996-2018 Texas Instruments Incorporated
C:\Users\Admin\AppData\Local\Temp\{72586B83-0C91-403C-A2FF-A215999388C2} PAGE    1

       1              ;***************************************************************
       2              ;* TMS320C2000 G3 C/C++ Codegen                               PC v22.6.1.LTS *
       3              ;* Date/Time created: Wed Jan 22 15:42:10 2025                 *
       4              ;***************************************************************
       5                      .compiler_opts --abi=eabi --cla_support=cla2 --diag_wrap=off --float_support=fpu32 --hll_source=on --
       6                      .asg    XAR2, FP
       7              
       8              $C$DW$CU        .dwtag  DW_TAG_compile_unit
       9                      .dwattr $C$DW$CU, DW_AT_name("../device/device.c")
      10                      .dwattr $C$DW$CU, DW_AT_producer("TI TMS320C2000 G3 C/C++ Codegen PC v22.6.1.LTS Copyright (c) 1996-2
      11                      .dwattr $C$DW$CU, DW_AT_TI_version(0x01)
      12                      .dwattr $C$DW$CU, DW_AT_comp_dir("F:\BaiduNetdiskDownload\workspace\DAB_500W\CPU1_RAM")
      13              
      14              $C$DW$1 .dwtag  DW_TAG_subprogram
      15                      .dwattr $C$DW$1, DW_AT_name("CMD_init")
      16                      .dwattr $C$DW$1, DW_AT_linkage_name("CMD_init")
      17                      .dwattr $C$DW$1, DW_AT_declaration
      18                      .dwattr $C$DW$1, DW_AT_external
      19                      .dwattr $C$DW$1, DW_AT_decl_file("F:/BaiduNetdiskDownload/workspace/DAB_500W/CPU1_RAM/syscfg/device_c
      20                      .dwattr $C$DW$1, DW_AT_decl_line(0x0f)
      21                      .dwattr $C$DW$1, DW_AT_decl_column(0x06)
      22                      .dwendtag $C$DW$1
      23              
      24              
      25              $C$DW$2 .dwtag  DW_TAG_subprogram
      26                      .dwattr $C$DW$2, DW_AT_name("GPIO_setAnalogMode")
      27                      .dwattr $C$DW$2, DW_AT_linkage_name("GPIO_setAnalogMode")
      28                      .dwattr $C$DW$2, DW_AT_declaration
      29                      .dwattr $C$DW$2, DW_AT_external
      30                      .dwattr $C$DW$2, DW_AT_decl_file("D:/ti/c2000/C2000Ware_5_04_00_00/driverlib/f28003x/driverlib/gpio.h
      31                      .dwattr $C$DW$2, DW_AT_decl_line(0x42c)
      32                      .dwattr $C$DW$2, DW_AT_decl_column(0x01)
      33              $C$DW$3 .dwtag  DW_TAG_formal_parameter
      34                      .dwattr $C$DW$3, DW_AT_type(*$C$DW$T$38)
      35              
      36              $C$DW$4 .dwtag  DW_TAG_formal_parameter
      37                      .dwattr $C$DW$4, DW_AT_type(*$C$DW$T$30)
      38              
      39                      .dwendtag $C$DW$2
      40              
      41              
      42              $C$DW$5 .dwtag  DW_TAG_subprogram
      43                      .dwattr $C$DW$5, DW_AT_name("SysCtl_setClock")
      44                      .dwattr $C$DW$5, DW_AT_linkage_name("SysCtl_setClock")
      45                      .dwattr $C$DW$5, DW_AT_type(*$C$DW$T$64)
      46                      .dwattr $C$DW$5, DW_AT_declaration
      47                      .dwattr $C$DW$5, DW_AT_external
      48                      .dwattr $C$DW$5, DW_AT_decl_file("D:\ti\c2000\C2000Ware_5_04_00_00\driverlib\f28003x\driverlib\sysctl
      49                      .dwattr $C$DW$5, DW_AT_decl_line(0xed0)
      50                      .dwattr $C$DW$5, DW_AT_decl_column(0x01)
      51              $C$DW$6 .dwtag  DW_TAG_formal_parameter
      52                      .dwattr $C$DW$6, DW_AT_type(*$C$DW$T$38)
      53              
      54                      .dwendtag $C$DW$5
      55              
TMS320C2000 Assembler PC v22.6.1 Wed Jan 22 15:42:10 2025

Copyright (c) 1996-2018 Texas Instruments Incorporated
C:\Users\Admin\AppData\Local\Temp\{72586B83-0C91-403C-A2FF-A215999388C2} PAGE    2

      56              
      57              $C$DW$7 .dwtag  DW_TAG_subprogram
      58                      .dwattr $C$DW$7, DW_AT_name("DCC_verifyClockFrequency")
      59                      .dwattr $C$DW$7, DW_AT_linkage_name("DCC_verifyClockFrequency")
      60                      .dwattr $C$DW$7, DW_AT_type(*$C$DW$T$64)
      61                      .dwattr $C$DW$7, DW_AT_declaration
      62                      .dwattr $C$DW$7, DW_AT_external
      63                      .dwattr $C$DW$7, DW_AT_decl_file("D:/ti/c2000/C2000Ware_5_04_00_00/driverlib/f28003x/driverlib/dcc.h"
      64                      .dwattr $C$DW$7, DW_AT_decl_line(0x364)
      65                      .dwattr $C$DW$7, DW_AT_decl_column(0x01)
      66              $C$DW$8 .dwtag  DW_TAG_formal_parameter
      67                      .dwattr $C$DW$8, DW_AT_type(*$C$DW$T$38)
      68              
      69              $C$DW$9 .dwtag  DW_TAG_formal_parameter
      70                      .dwattr $C$DW$9, DW_AT_type(*$C$DW$T$24)
      71              
      72              $C$DW$10        .dwtag  DW_TAG_formal_parameter
      73                      .dwattr $C$DW$10, DW_AT_type(*$C$DW$T$63)
      74              
      75              $C$DW$11        .dwtag  DW_TAG_formal_parameter
      76                      .dwattr $C$DW$11, DW_AT_type(*$C$DW$T$26)
      77              
      78              $C$DW$12        .dwtag  DW_TAG_formal_parameter
      79                      .dwattr $C$DW$12, DW_AT_type(*$C$DW$T$63)
      80              
      81              $C$DW$13        .dwtag  DW_TAG_formal_parameter
      82                      .dwattr $C$DW$13, DW_AT_type(*$C$DW$T$63)
      83              
      84              $C$DW$14        .dwtag  DW_TAG_formal_parameter
      85                      .dwattr $C$DW$14, DW_AT_type(*$C$DW$T$63)
      86              
      87              $C$DW$15        .dwtag  DW_TAG_formal_parameter
      88                      .dwattr $C$DW$15, DW_AT_type(*$C$DW$T$63)
      89              
      90                      .dwendtag $C$DW$7
      91              
      92              
      93              $C$DW$16        .dwtag  DW_TAG_subprogram
      94                      .dwattr $C$DW$16, DW_AT_name("SysCtl_getClock")
      95                      .dwattr $C$DW$16, DW_AT_linkage_name("SysCtl_getClock")
      96                      .dwattr $C$DW$16, DW_AT_type(*$C$DW$T$38)
      97                      .dwattr $C$DW$16, DW_AT_declaration
      98                      .dwattr $C$DW$16, DW_AT_external
      99                      .dwattr $C$DW$16, DW_AT_decl_file("D:\ti\c2000\C2000Ware_5_04_00_00\driverlib\f28003x\driverlib\sysct
     100                      .dwattr $C$DW$16, DW_AT_decl_line(0xe9f)
     101                      .dwattr $C$DW$16, DW_AT_decl_column(0x01)
     102              $C$DW$17        .dwtag  DW_TAG_formal_parameter
     103                      .dwattr $C$DW$17, DW_AT_type(*$C$DW$T$38)
     104              
     105                      .dwendtag $C$DW$16
     106              
     107              
     108              $C$DW$18        .dwtag  DW_TAG_subprogram
     109                      .dwattr $C$DW$18, DW_AT_name("SysCtl_getLowSpeedClock")
     110                      .dwattr $C$DW$18, DW_AT_linkage_name("SysCtl_getLowSpeedClock")
TMS320C2000 Assembler PC v22.6.1 Wed Jan 22 15:42:10 2025

Copyright (c) 1996-2018 Texas Instruments Incorporated
C:\Users\Admin\AppData\Local\Temp\{72586B83-0C91-403C-A2FF-A215999388C2} PAGE    3

     111                      .dwattr $C$DW$18, DW_AT_type(*$C$DW$T$38)
     112                      .dwattr $C$DW$18, DW_AT_declaration
     113                      .dwattr $C$DW$18, DW_AT_external
     114                      .dwattr $C$DW$18, DW_AT_decl_file("D:\ti\c2000\C2000Ware_5_04_00_00\driverlib\f28003x\driverlib\sysct
     115                      .dwattr $C$DW$18, DW_AT_decl_line(0xf40)
     116                      .dwattr $C$DW$18, DW_AT_decl_column(0x01)
     117              $C$DW$19        .dwtag  DW_TAG_formal_parameter
     118                      .dwattr $C$DW$19, DW_AT_type(*$C$DW$T$38)
     119              
     120                      .dwendtag $C$DW$18
     121              
     122              ;       D:\ti\ccs1281\ccs\tools\compiler\ti-cgt-c2000_22.6.1.LTS\bin\acia2000.exe -@C:\\Users\\Admin\\AppData
     123 00000000               .sect   ".text:ASysCtl_lockVREG"
     124                      .clink
     125              
     126              $C$DW$20        .dwtag  DW_TAG_subprogram
     127                      .dwattr $C$DW$20, DW_AT_name("ASysCtl_lockVREG")
     128                      .dwattr $C$DW$20, DW_AT_low_pc(||ASysCtl_lockVREG||)
     129                      .dwattr $C$DW$20, DW_AT_high_pc(0x00)
     130                      .dwattr $C$DW$20, DW_AT_linkage_name("ASysCtl_lockVREG")
     131                      .dwattr $C$DW$20, DW_AT_decl_file("D:/ti/c2000/C2000Ware_5_04_00_00/driverlib/f28003x/driverlib/asysc
     132                      .dwattr $C$DW$20, DW_AT_decl_line(0x290)
     133                      .dwattr $C$DW$20, DW_AT_decl_column(0x14)
     134                      .dwattr $C$DW$20, DW_AT_TI_max_frame_size(-2)
     135                      .dwpsn  file "D:/ti/c2000/C2000Ware_5_04_00_00/driverlib/f28003x/driverlib/asysctl.h",line 657,column
     136              
     137                      .dwfde $C$DW$CIE, ||ASysCtl_lockVREG||
     138              
     139              ;***************************************************************
     140              ;* FNAME: ASysCtl_lockVREG              FR SIZE:   0           *
     141              ;*                                                             *
     142              ;* FUNCTION ENVIRONMENT                                        *
     143              ;*                                                             *
     144              ;* FUNCTION PROPERTIES                                         *
     145              ;*                            0 Parameter,  0 Auto,  0 SOE     *
     146              ;***************************************************************
     147              
     148 00000000       ||ASysCtl_lockVREG||:
     149                      .dwcfi  cfa_offset, -2
     150                      .dwcfi  save_reg_to_mem, 26, 0
     151                      .dwpsn  file "D:/ti/c2000/C2000Ware_5_04_00_00/driverlib/f28003x/driverlib/asysctl.h",line 658,column
     152 00000000 7622          EALLOW    ; [CPU_ALU] |658| 
     153                      .dwpsn  file "D:/ti/c2000/C2000Ware_5_04_00_00/driverlib/f28003x/driverlib/asysctl.h",line 663,column
     154 00000001 8F05          MOVL      XAR4,#382862          ; [CPU_ARAU] |663| 
         00000002 D78E 
     155 00000003 1AC4          OR        *+XAR4[0],#0x0200     ; [CPU_ALU] |663| 
         00000004 0200 
     156                      .dwpsn  file "D:/ti/c2000/C2000Ware_5_04_00_00/driverlib/f28003x/driverlib/asysctl.h",line 665,column
     157 00000005 761A          EDIS      ; [CPU_ALU] |665| 
     158                      .dwpsn  file "D:/ti/c2000/C2000Ware_5_04_00_00/driverlib/f28003x/driverlib/asysctl.h",line 666,column
     159              $C$DW$21        .dwtag  DW_TAG_TI_branch
     160                      .dwattr $C$DW$21, DW_AT_low_pc(0x00)
     161                      .dwattr $C$DW$21, DW_AT_TI_return
     162              
     163 00000006 0006          LRETR     ; [CPU_ALU] 
TMS320C2000 Assembler PC v22.6.1 Wed Jan 22 15:42:10 2025

Copyright (c) 1996-2018 Texas Instruments Incorporated
C:\Users\Admin\AppData\Local\Temp\{72586B83-0C91-403C-A2FF-A215999388C2} PAGE    4

     164                      ; return occurs ; [] 
     165                      .dwattr $C$DW$20, DW_AT_TI_end_file("D:/ti/c2000/C2000Ware_5_04_00_00/driverlib/f28003x/driverlib/asy
     166                      .dwattr $C$DW$20, DW_AT_TI_end_line(0x29a)
     167                      .dwattr $C$DW$20, DW_AT_TI_end_column(0x01)
     168                      .dwendentry
     169                      .dwendtag $C$DW$20
     170              
     171 00000000               .sect   ".text:SysCtl_deviceCal"
     172                      .clink
     173              
     174              $C$DW$22        .dwtag  DW_TAG_subprogram
     175                      .dwattr $C$DW$22, DW_AT_name("SysCtl_deviceCal")
     176                      .dwattr $C$DW$22, DW_AT_low_pc(||SysCtl_deviceCal||)
     177                      .dwattr $C$DW$22, DW_AT_high_pc(0x00)
     178                      .dwattr $C$DW$22, DW_AT_linkage_name("SysCtl_deviceCal")
     179                      .dwattr $C$DW$22, DW_AT_decl_file("D:\ti\c2000\C2000Ware_5_04_00_00\driverlib\f28003x\driverlib\sysct
     180                      .dwattr $C$DW$22, DW_AT_decl_line(0x364)
     181                      .dwattr $C$DW$22, DW_AT_decl_column(0x01)
     182                      .dwattr $C$DW$22, DW_AT_TI_max_frame_size(-2)
     183                      .dwpsn  file "D:\ti\c2000\C2000Ware_5_04_00_00\driverlib\f28003x\driverlib\sysctl.h",line 869,column 
     184              
     185                      .dwfde $C$DW$CIE, ||SysCtl_deviceCal||
     186              
     187              ;***************************************************************
     188              ;* FNAME: SysCtl_deviceCal              FR SIZE:   0           *
     189              ;*                                                             *
     190              ;* FUNCTION ENVIRONMENT                                        *
     191              ;*                                                             *
     192              ;* FUNCTION PROPERTIES                                         *
     193              ;*                            0 Parameter,  0 Auto,  0 SOE     *
     194              ;***************************************************************
     195              
     196 00000000       ||SysCtl_deviceCal||:
     197                      .dwcfi  cfa_offset, -2
     198                      .dwcfi  save_reg_to_mem, 26, 0
     199                      .dwpsn  file "D:\ti\c2000\C2000Ware_5_04_00_00\driverlib\f28003x\driverlib\sysctl.h",line 874,column 
     200 00000000 76FF          MOVL      XAR7,#CALL(4181612)   ; [CPU_ARAU] |874| 
         00000001 CE6C 
     201              $C$DW$23        .dwtag  DW_TAG_TI_branch
     202                      .dwattr $C$DW$23, DW_AT_low_pc(0x00)
     203                      .dwattr $C$DW$23, DW_AT_TI_call
     204                      .dwattr $C$DW$23, DW_AT_TI_indirect
     205              
     206 00000002 3E67          LCR       *XAR7                 ; [CPU_ALU] |874| 
     207                      ; call occurs [XAR7] ; [] |874| 
     208                      .dwpsn  file "D:\ti\c2000\C2000Ware_5_04_00_00\driverlib\f28003x\driverlib\sysctl.h",line 876,column 
     209              $C$DW$24        .dwtag  DW_TAG_TI_branch
     210                      .dwattr $C$DW$24, DW_AT_low_pc(0x00)
     211                      .dwattr $C$DW$24, DW_AT_TI_return
     212              
     213 00000003 0006          LRETR     ; [CPU_ALU] 
     214                      ; return occurs ; [] 
     215                      .dwattr $C$DW$22, DW_AT_TI_end_file("D:\ti\c2000\C2000Ware_5_04_00_00\driverlib\f28003x\driverlib\sys
     216                      .dwattr $C$DW$22, DW_AT_TI_end_line(0x36c)
     217                      .dwattr $C$DW$22, DW_AT_TI_end_column(0x01)
TMS320C2000 Assembler PC v22.6.1 Wed Jan 22 15:42:10 2025

Copyright (c) 1996-2018 Texas Instruments Incorporated
C:\Users\Admin\AppData\Local\Temp\{72586B83-0C91-403C-A2FF-A215999388C2} PAGE    5

     218                      .dwendentry
     219                      .dwendtag $C$DW$22
     220              
     221 00000000               .sect   ".text:SysCtl_enablePeripheral"
     222                      .clink
     223              
     224              $C$DW$25        .dwtag  DW_TAG_subprogram
     225                      .dwattr $C$DW$25, DW_AT_name("SysCtl_enablePeripheral")
     226                      .dwattr $C$DW$25, DW_AT_low_pc(||SysCtl_enablePeripheral||)
     227                      .dwattr $C$DW$25, DW_AT_high_pc(0x00)
     228                      .dwattr $C$DW$25, DW_AT_linkage_name("SysCtl_enablePeripheral")
     229                      .dwattr $C$DW$25, DW_AT_decl_file("D:\ti\c2000\C2000Ware_5_04_00_00\driverlib\f28003x\driverlib\sysct
     230                      .dwattr $C$DW$25, DW_AT_decl_line(0x3b5)
     231                      .dwattr $C$DW$25, DW_AT_decl_column(0x01)
     232                      .dwattr $C$DW$25, DW_AT_TI_max_frame_size(-6)
     233                      .dwpsn  file "D:\ti\c2000\C2000Ware_5_04_00_00\driverlib\f28003x\driverlib\sysctl.h",line 950,column 
     234              
     235                      .dwfde $C$DW$CIE, ||SysCtl_enablePeripheral||
     236              $C$DW$26        .dwtag  DW_TAG_formal_parameter
     237                      .dwattr $C$DW$26, DW_AT_name("peripheral")
     238                      .dwattr $C$DW$26, DW_AT_type(*$C$DW$T$20)
     239                      .dwattr $C$DW$26, DW_AT_location[DW_OP_reg0]
     240              
     241              
     242              ;***************************************************************
     243              ;* FNAME: SysCtl_enablePeripheral       FR SIZE:   4           *
     244              ;*                                                             *
     245              ;* FUNCTION ENVIRONMENT                                        *
     246              ;*                                                             *
     247              ;* FUNCTION PROPERTIES                                         *
     248              ;*                            0 Parameter,  3 Auto,  0 SOE     *
     249              ;***************************************************************
     250              
     251 00000000       ||SysCtl_enablePeripheral||:
     252                      .dwcfi  cfa_offset, -2
     253                      .dwcfi  save_reg_to_mem, 26, 0
     254 00000000 FE04          ADDB      SP,#4                 ; [CPU_ARAU] 
     255                      .dwcfi  cfa_offset, -6
     256              $C$DW$27        .dwtag  DW_TAG_variable
     257                      .dwattr $C$DW$27, DW_AT_name("peripheral")
     258                      .dwattr $C$DW$27, DW_AT_type(*$C$DW$T$20)
     259                      .dwattr $C$DW$27, DW_AT_location[DW_OP_breg20 -1]
     260              
     261              $C$DW$28        .dwtag  DW_TAG_variable
     262                      .dwattr $C$DW$28, DW_AT_name("regIndex")
     263                      .dwattr $C$DW$28, DW_AT_type(*$C$DW$T$53)
     264                      .dwattr $C$DW$28, DW_AT_location[DW_OP_breg20 -2]
     265              
     266              $C$DW$29        .dwtag  DW_TAG_variable
     267                      .dwattr $C$DW$29, DW_AT_name("bitIndex")
     268                      .dwattr $C$DW$29, DW_AT_type(*$C$DW$T$53)
     269                      .dwattr $C$DW$29, DW_AT_location[DW_OP_breg20 -3]
     270              
     271 00000001 9641          MOV       *-SP[1],AL            ; [CPU_ALU] |950| 
     272                      .dwpsn  file "D:\ti\c2000\C2000Ware_5_04_00_00\driverlib\f28003x\driverlib\sysctl.h",line 957,column 
TMS320C2000 Assembler PC v22.6.1 Wed Jan 22 15:42:10 2025

Copyright (c) 1996-2018 Texas Instruments Incorporated
C:\Users\Admin\AppData\Local\Temp\{72586B83-0C91-403C-A2FF-A215999388C2} PAGE    6

     273 00000002 901F          ANDB      AL,#0x1f              ; [CPU_ALU] |957| 
     274 00000003 FF80          LSL       AL,1                  ; [CPU_ALU] |957| 
     275 00000004 9642          MOV       *-SP[2],AL            ; [CPU_ALU] |957| 
     276                      .dwpsn  file "D:\ti\c2000\C2000Ware_5_04_00_00\driverlib\f28003x\driverlib\sysctl.h",line 959,column 
     277 00000005 CC41          AND       AL,*-SP[1],#0x1f00    ; [CPU_ALU] |959| 
         00000006 1F00 
     278 00000007 FFC7          LSR       AL,8                  ; [CPU_ALU] |959| 
     279 00000008 9643          MOV       *-SP[3],AL            ; [CPU_ALU] |959| 
     280                      .dwpsn  file "D:\ti\c2000\C2000Ware_5_04_00_00\driverlib\f28003x\driverlib\sysctl.h",line 962,column 
     281 00000009 7622          EALLOW    ; [CPU_ALU] |962| 
     282                      .dwpsn  file "D:\ti\c2000\C2000Ware_5_04_00_00\driverlib\f28003x\driverlib\sysctl.h",line 967,column 
     283 0000000a 8F05          MOVL      XAR4,#381730          ; [CPU_ARAU] |967| 
         0000000b D322 
     284 0000000c A8A9          MOVL      ACC,XAR4              ; [CPU_ALU] |967| 
     285 0000000d 0D42          ADDU      ACC,*-SP[2]           ; [CPU_ALU] |967| 
     286 0000000e 8AA9          MOVL      XAR4,ACC              ; [CPU_ALU] |967| 
     287 0000000f 2D43          MOV       T,*-SP[3]             ; [CPU_ALU] |967| 
     288 00000010 0201          MOVB      ACC,#1                ; [CPU_ALU] |967| 
     289 00000011 563B          LSLL      ACC,T                 ; [CPU_ALU] |967| 
     290 00000012 98C4          OR        *+XAR4[0],AL          ; [CPU_ALU] |967| 
     291 00000013 99CC          OR        *+XAR4[1],AH          ; [CPU_ALU] |967| 
     292                      .dwpsn  file "D:\ti\c2000\C2000Ware_5_04_00_00\driverlib\f28003x\driverlib\sysctl.h",line 968,column 
     293 00000014 761A          EDIS      ; [CPU_ALU] |968| 
     294                      .dwpsn  file "D:\ti\c2000\C2000Ware_5_04_00_00\driverlib\f28003x\driverlib\sysctl.h",line 969,column 
     295 00000015 FE84          SUBB      SP,#4                 ; [CPU_ARAU] 
     296                      .dwcfi  cfa_offset, -2
     297              $C$DW$30        .dwtag  DW_TAG_TI_branch
     298                      .dwattr $C$DW$30, DW_AT_low_pc(0x00)
     299                      .dwattr $C$DW$30, DW_AT_TI_return
     300              
     301 00000016 0006          LRETR     ; [CPU_ALU] 
     302                      ; return occurs ; [] 
     303                      .dwattr $C$DW$25, DW_AT_TI_end_file("D:\ti\c2000\C2000Ware_5_04_00_00\driverlib\f28003x\driverlib\sys
     304                      .dwattr $C$DW$25, DW_AT_TI_end_line(0x3c9)
     305                      .dwattr $C$DW$25, DW_AT_TI_end_column(0x01)
     306                      .dwendentry
     307                      .dwendtag $C$DW$25
     308              
     309 00000000               .sect   ".text:SysCtl_setLowSpeedClock"
     310                      .clink
     311              
     312              $C$DW$31        .dwtag  DW_TAG_subprogram
     313                      .dwattr $C$DW$31, DW_AT_name("SysCtl_setLowSpeedClock")
     314                      .dwattr $C$DW$31, DW_AT_low_pc(||SysCtl_setLowSpeedClock||)
     315                      .dwattr $C$DW$31, DW_AT_high_pc(0x00)
     316                      .dwattr $C$DW$31, DW_AT_linkage_name("SysCtl_setLowSpeedClock")
     317                      .dwattr $C$DW$31, DW_AT_decl_file("D:\ti\c2000\C2000Ware_5_04_00_00\driverlib\f28003x\driverlib\sysct
     318                      .dwattr $C$DW$31, DW_AT_decl_line(0x487)
     319                      .dwattr $C$DW$31, DW_AT_decl_column(0x01)
     320                      .dwattr $C$DW$31, DW_AT_TI_max_frame_size(-4)
     321                      .dwpsn  file "D:\ti\c2000\C2000Ware_5_04_00_00\driverlib\f28003x\driverlib\sysctl.h",line 1160,column
     322              
     323                      .dwfde $C$DW$CIE, ||SysCtl_setLowSpeedClock||
     324              $C$DW$32        .dwtag  DW_TAG_formal_parameter
     325                      .dwattr $C$DW$32, DW_AT_name("prescaler")
TMS320C2000 Assembler PC v22.6.1 Wed Jan 22 15:42:10 2025

Copyright (c) 1996-2018 Texas Instruments Incorporated
C:\Users\Admin\AppData\Local\Temp\{72586B83-0C91-403C-A2FF-A215999388C2} PAGE    7

     326                      .dwattr $C$DW$32, DW_AT_type(*$C$DW$T$22)
     327                      .dwattr $C$DW$32, DW_AT_location[DW_OP_reg0]
     328              
     329              
     330              ;***************************************************************
     331              ;* FNAME: SysCtl_setLowSpeedClock       FR SIZE:   2           *
     332              ;*                                                             *
     333              ;* FUNCTION ENVIRONMENT                                        *
     334              ;*                                                             *
     335              ;* FUNCTION PROPERTIES                                         *
     336              ;*                            0 Parameter,  1 Auto,  0 SOE     *
     337              ;***************************************************************
     338              
     339 00000000       ||SysCtl_setLowSpeedClock||:
     340                      .dwcfi  cfa_offset, -2
     341                      .dwcfi  save_reg_to_mem, 26, 0
     342 00000000 FE02          ADDB      SP,#2                 ; [CPU_ARAU] 
     343                      .dwcfi  cfa_offset, -4
     344              $C$DW$33        .dwtag  DW_TAG_variable
     345                      .dwattr $C$DW$33, DW_AT_name("prescaler")
     346                      .dwattr $C$DW$33, DW_AT_type(*$C$DW$T$22)
     347                      .dwattr $C$DW$33, DW_AT_location[DW_OP_breg20 -1]
     348              
     349 00000001 9641          MOV       *-SP[1],AL            ; [CPU_ALU] |1160| 
     350                      .dwpsn  file "D:\ti\c2000\C2000Ware_5_04_00_00\driverlib\f28003x\driverlib\sysctl.h",line 1164,column
     351 00000002 7622          EALLOW    ; [CPU_ALU] |1164| 
     352                      .dwpsn  file "D:\ti\c2000\C2000Ware_5_04_00_00\driverlib\f28003x\driverlib\sysctl.h",line 1165,column
     353 00000003 8F05          MOVL      XAR4,#381484          ; [CPU_ARAU] |1165| 
         00000004 D22C 
     354 00000005 06C4          MOVL      ACC,*+XAR4[0]         ; [CPU_ALU] |1165| 
     355 00000006 18A9          AND       AL,#65528             ; [CPU_ALU] |1165| 
         00000007 FFF8 
     356 00000008 AF41          OR        ACC,*-SP[1]           ; [CPU_ALU] |1165| 
     357 00000009 1EC4          MOVL      *+XAR4[0],ACC         ; [CPU_ALU] |1165| 
     358                      .dwpsn  file "D:\ti\c2000\C2000Ware_5_04_00_00\driverlib\f28003x\driverlib\sysctl.h",line 1168,column
     359 0000000a 761A          EDIS      ; [CPU_ALU] |1168| 
     360                      .dwpsn  file "D:\ti\c2000\C2000Ware_5_04_00_00\driverlib\f28003x\driverlib\sysctl.h",line 1169,column
     361 0000000b FE82          SUBB      SP,#2                 ; [CPU_ARAU] 
     362                      .dwcfi  cfa_offset, -2
     363              $C$DW$34        .dwtag  DW_TAG_TI_branch
     364                      .dwattr $C$DW$34, DW_AT_low_pc(0x00)
     365                      .dwattr $C$DW$34, DW_AT_TI_return
     366              
     367 0000000c 0006          LRETR     ; [CPU_ALU] 
     368                      ; return occurs ; [] 
     369                      .dwattr $C$DW$31, DW_AT_TI_end_file("D:\ti\c2000\C2000Ware_5_04_00_00\driverlib\f28003x\driverlib\sys
     370                      .dwattr $C$DW$31, DW_AT_TI_end_line(0x491)
     371                      .dwattr $C$DW$31, DW_AT_TI_end_column(0x01)
     372                      .dwendentry
     373                      .dwendtag $C$DW$31
     374              
     375 00000000               .sect   ".text:SysCtl_getExternalOscCounterValue"
     376                      .clink
     377              
     378              $C$DW$35        .dwtag  DW_TAG_subprogram
TMS320C2000 Assembler PC v22.6.1 Wed Jan 22 15:42:10 2025

Copyright (c) 1996-2018 Texas Instruments Incorporated
C:\Users\Admin\AppData\Local\Temp\{72586B83-0C91-403C-A2FF-A215999388C2} PAGE    8

     379                      .dwattr $C$DW$35, DW_AT_name("SysCtl_getExternalOscCounterValue")
     380                      .dwattr $C$DW$35, DW_AT_low_pc(||SysCtl_getExternalOscCounterValue||)
     381                      .dwattr $C$DW$35, DW_AT_high_pc(0x00)
     382                      .dwattr $C$DW$35, DW_AT_linkage_name("SysCtl_getExternalOscCounterValue")
     383                      .dwattr $C$DW$35, DW_AT_type(*$C$DW$T$53)
     384                      .dwattr $C$DW$35, DW_AT_decl_file("D:\ti\c2000\C2000Ware_5_04_00_00\driverlib\f28003x\driverlib\sysct
     385                      .dwattr $C$DW$35, DW_AT_decl_line(0x4f9)
     386                      .dwattr $C$DW$35, DW_AT_decl_column(0x01)
     387                      .dwattr $C$DW$35, DW_AT_TI_max_frame_size(-2)
     388                      .dwpsn  file "D:\ti\c2000\C2000Ware_5_04_00_00\driverlib\f28003x\driverlib\sysctl.h",line 1274,column
     389              
     390                      .dwfde $C$DW$CIE, ||SysCtl_getExternalOscCounterValue||
     391              
     392              ;***************************************************************
     393              ;* FNAME: SysCtl_getExternalOscCounterValue FR SIZE:   0           *
     394              ;*                                                             *
     395              ;* FUNCTION ENVIRONMENT                                        *
     396              ;*                                                             *
     397              ;* FUNCTION PROPERTIES                                         *
     398              ;*                            0 Parameter,  0 Auto,  0 SOE     *
     399              ;***************************************************************
     400              
     401 00000000       ||SysCtl_getExternalOscCounterValue||:
     402                      .dwcfi  cfa_offset, -2
     403                      .dwcfi  save_reg_to_mem, 26, 0
     404                      .dwpsn  file "D:\ti\c2000\C2000Ware_5_04_00_00\driverlib\f28003x\driverlib\sysctl.h",line 1275,column
     405 00000000 8F05          MOVL      XAR4,#381488          ; [CPU_ARAU] |1275| 
         00000001 D230 
     406 00000002 CCC4          AND       AL,*+XAR4[0],#0x07ff  ; [CPU_ALU] |1275| 
         00000003 07FF 
     407                      .dwpsn  file "D:\ti\c2000\C2000Ware_5_04_00_00\driverlib\f28003x\driverlib\sysctl.h",line 1276,column
     408              $C$DW$36        .dwtag  DW_TAG_TI_branch
     409                      .dwattr $C$DW$36, DW_AT_low_pc(0x00)
     410                      .dwattr $C$DW$36, DW_AT_TI_return
     411              
     412 00000004 0006          LRETR     ; [CPU_ALU] 
     413                      ; return occurs ; [] 
     414                      .dwattr $C$DW$35, DW_AT_TI_end_file("D:\ti\c2000\C2000Ware_5_04_00_00\driverlib\f28003x\driverlib\sys
     415                      .dwattr $C$DW$35, DW_AT_TI_end_line(0x4fc)
     416                      .dwattr $C$DW$35, DW_AT_TI_end_column(0x01)
     417                      .dwendentry
     418                      .dwendtag $C$DW$35
     419              
     420 00000000               .sect   ".text:SysCtl_clearExternalOscCounterValue"
     421                      .clink
     422              
     423              $C$DW$37        .dwtag  DW_TAG_subprogram
     424                      .dwattr $C$DW$37, DW_AT_name("SysCtl_clearExternalOscCounterValue")
     425                      .dwattr $C$DW$37, DW_AT_low_pc(||SysCtl_clearExternalOscCounterValue||)
     426                      .dwattr $C$DW$37, DW_AT_high_pc(0x00)
     427                      .dwattr $C$DW$37, DW_AT_linkage_name("SysCtl_clearExternalOscCounterValue")
     428                      .dwattr $C$DW$37, DW_AT_decl_file("D:\ti\c2000\C2000Ware_5_04_00_00\driverlib\f28003x\driverlib\sysct
     429                      .dwattr $C$DW$37, DW_AT_decl_line(0x506)
     430                      .dwattr $C$DW$37, DW_AT_decl_column(0x01)
     431                      .dwattr $C$DW$37, DW_AT_TI_max_frame_size(-2)
TMS320C2000 Assembler PC v22.6.1 Wed Jan 22 15:42:10 2025

Copyright (c) 1996-2018 Texas Instruments Incorporated
C:\Users\Admin\AppData\Local\Temp\{72586B83-0C91-403C-A2FF-A215999388C2} PAGE    9

     432                      .dwpsn  file "D:\ti\c2000\C2000Ware_5_04_00_00\driverlib\f28003x\driverlib\sysctl.h",line 1287,column
     433              
     434                      .dwfde $C$DW$CIE, ||SysCtl_clearExternalOscCounterValue||
     435              
     436              ;***************************************************************
     437              ;* FNAME: SysCtl_clearExternalOscCounterValue FR SIZE:   0           *
     438              ;*                                                             *
     439              ;* FUNCTION ENVIRONMENT                                        *
     440              ;*                                                             *
     441              ;* FUNCTION PROPERTIES                                         *
     442              ;*                            0 Parameter,  0 Auto,  0 SOE     *
     443              ;***************************************************************
     444              
     445 00000000       ||SysCtl_clearExternalOscCounterValue||:
     446                      .dwcfi  cfa_offset, -2
     447                      .dwcfi  save_reg_to_mem, 26, 0
     448                      .dwpsn  file "D:\ti\c2000\C2000Ware_5_04_00_00\driverlib\f28003x\driverlib\sysctl.h",line 1288,column
     449 00000000 8F05          MOVL      XAR4,#381488          ; [CPU_ARAU] |1288| 
         00000001 D230 
     450 00000002 06C4          MOVL      ACC,*+XAR4[0]         ; [CPU_ALU] |1288| 
     451 00000003 5101          OR        AH,#1                 ; [CPU_ALU] |1288| 
     452 00000004 1EC4          MOVL      *+XAR4[0],ACC         ; [CPU_ALU] |1288| 
     453                      .dwpsn  file "D:\ti\c2000\C2000Ware_5_04_00_00\driverlib\f28003x\driverlib\sysctl.h",line 1289,column
     454              $C$DW$38        .dwtag  DW_TAG_TI_branch
     455                      .dwattr $C$DW$38, DW_AT_low_pc(0x00)
     456                      .dwattr $C$DW$38, DW_AT_TI_return
     457              
     458 00000005 0006          LRETR     ; [CPU_ALU] 
     459                      ; return occurs ; [] 
     460                      .dwattr $C$DW$37, DW_AT_TI_end_file("D:\ti\c2000\C2000Ware_5_04_00_00\driverlib\f28003x\driverlib\sys
     461                      .dwattr $C$DW$37, DW_AT_TI_end_line(0x509)
     462                      .dwattr $C$DW$37, DW_AT_TI_end_column(0x01)
     463                      .dwendentry
     464                      .dwendtag $C$DW$37
     465              
     466 00000000               .sect   ".text:SysCtl_turnOnOsc"
     467                      .clink
     468              
     469              $C$DW$39        .dwtag  DW_TAG_subprogram
     470                      .dwattr $C$DW$39, DW_AT_name("SysCtl_turnOnOsc")
     471                      .dwattr $C$DW$39, DW_AT_low_pc(||SysCtl_turnOnOsc||)
     472                      .dwattr $C$DW$39, DW_AT_high_pc(0x00)
     473                      .dwattr $C$DW$39, DW_AT_linkage_name("SysCtl_turnOnOsc")
     474                      .dwattr $C$DW$39, DW_AT_decl_file("D:\ti\c2000\C2000Ware_5_04_00_00\driverlib\f28003x\driverlib\sysct
     475                      .dwattr $C$DW$39, DW_AT_decl_line(0x51b)
     476                      .dwattr $C$DW$39, DW_AT_decl_column(0x01)
     477                      .dwattr $C$DW$39, DW_AT_TI_max_frame_size(-4)
     478                      .dwpsn  file "D:\ti\c2000\C2000Ware_5_04_00_00\driverlib\f28003x\driverlib\sysctl.h",line 1308,column
     479              
     480                      .dwfde $C$DW$CIE, ||SysCtl_turnOnOsc||
     481              $C$DW$40        .dwtag  DW_TAG_formal_parameter
     482                      .dwattr $C$DW$40, DW_AT_name("oscSource")
     483                      .dwattr $C$DW$40, DW_AT_type(*$C$DW$T$38)
     484                      .dwattr $C$DW$40, DW_AT_location[DW_OP_reg0]
     485              
TMS320C2000 Assembler PC v22.6.1 Wed Jan 22 15:42:10 2025

Copyright (c) 1996-2018 Texas Instruments Incorporated
C:\Users\Admin\AppData\Local\Temp\{72586B83-0C91-403C-A2FF-A215999388C2} PAGE   10

     486              
     487              ;***************************************************************
     488              ;* FNAME: SysCtl_turnOnOsc              FR SIZE:   2           *
     489              ;*                                                             *
     490              ;* FUNCTION ENVIRONMENT                                        *
     491              ;*                                                             *
     492              ;* FUNCTION PROPERTIES                                         *
     493              ;*                            0 Parameter,  2 Auto,  0 SOE     *
     494              ;***************************************************************
     495              
     496 00000000       ||SysCtl_turnOnOsc||:
     497                      .dwcfi  cfa_offset, -2
     498                      .dwcfi  save_reg_to_mem, 26, 0
     499 00000000 FE02          ADDB      SP,#2                 ; [CPU_ARAU] 
     500                      .dwcfi  cfa_offset, -4
     501              $C$DW$41        .dwtag  DW_TAG_variable
     502                      .dwattr $C$DW$41, DW_AT_name("oscSource")
     503                      .dwattr $C$DW$41, DW_AT_type(*$C$DW$T$38)
     504                      .dwattr $C$DW$41, DW_AT_location[DW_OP_breg20 -2]
     505              
     506 00000001 1E42          MOVL      *-SP[2],ACC           ; [CPU_ALU] |1308| 
     507                      .dwpsn  file "D:\ti\c2000\C2000Ware_5_04_00_00\driverlib\f28003x\driverlib\sysctl.h",line 1309,column
     508 00000002 0642          MOVL      ACC,*-SP[2]           ; [CPU_ALU] |1309| 
     509 00000003 610C          B         ||$C$L1||,EQ          ; [CPU_ALU] |1309| 
     510                      ; branchcc occurs ; [] |1309| 
     511 00000004 8F01          MOVL      XAR4,#65536           ; [CPU_ARAU] |1309| 
         00000005 0000 
     512 00000006 A8A9          MOVL      ACC,XAR4              ; [CPU_ALU] |1309| 
     513 00000007 0F42          CMPL      ACC,*-SP[2]           ; [CPU_ALU] |1309| 
     514 00000008 6107          B         ||$C$L1||,EQ          ; [CPU_ALU] |1309| 
     515                      ; branchcc occurs ; [] |1309| 
     516 00000009 FF20          MOV       ACC,#1312             ; [CPU_ALU] |1309| 
         0000000a 0520 
     517 0000000b 8F00!         MOVL      XAR4,#$C$FSL1         ; [CPU_ARAU] |1309| 
         0000000c 0000 
     518              $C$DW$42        .dwtag  DW_TAG_TI_branch
     519                      .dwattr $C$DW$42, DW_AT_low_pc(0x00)
     520                      .dwattr $C$DW$42, DW_AT_name("__error__")
     521                      .dwattr $C$DW$42, DW_AT_TI_call
     522              
     523 0000000d 7640!         LCR       #||__error__||        ; [CPU_ALU] |1309| 
         0000000e 0000 
     524                      ; call occurs [#||__error__||] ; [] |1309| 
     525 0000000f       ||$C$L1||:    
     526                      .dwpsn  file "D:\ti\c2000\C2000Ware_5_04_00_00\driverlib\f28003x\driverlib\sysctl.h",line 1314,column
     527 0000000f 7622          EALLOW    ; [CPU_ALU] |1314| 
     528                      .dwpsn  file "D:\ti\c2000\C2000Ware_5_04_00_00\driverlib\f28003x\driverlib\sysctl.h",line 1316,column
     529 00000010 6F11          B         ||$C$L4||,UNC         ; [CPU_ALU] |1316| 
     530                      ; branch occurs ; [] |1316| 
     531 00000011       ||$C$L2||:    
     532                      .dwpsn  file "D:\ti\c2000\C2000Ware_5_04_00_00\driverlib\f28003x\driverlib\sysctl.h",line 1322,column
     533 00000011 8F05          MOVL      XAR4,#381448          ; [CPU_ARAU] |1322| 
         00000012 D208 
     534 00000013 18C4          AND       *+XAR4[0],#0xfff7     ; [CPU_ALU] |1322| 
         00000014 FFF7 
TMS320C2000 Assembler PC v22.6.1 Wed Jan 22 15:42:10 2025

Copyright (c) 1996-2018 Texas Instruments Incorporated
C:\Users\Admin\AppData\Local\Temp\{72586B83-0C91-403C-A2FF-A215999388C2} PAGE   11

     535                      .dwpsn  file "D:\ti\c2000\C2000Ware_5_04_00_00\driverlib\f28003x\driverlib\sysctl.h",line 1324,column
     536 00000015 F6FA   RPT #250 || NOP 
         00000016 7700 
     537 00000017 F632   RPT #50 || NOP
         00000018 7700 
     538                      .dwpsn  file "D:\ti\c2000\C2000Ware_5_04_00_00\driverlib\f28003x\driverlib\sysctl.h",line 1325,column
     539 00000019 6F10          B         ||$C$L5||,UNC         ; [CPU_ALU] |1325| 
     540                      ; branch occurs ; [] |1325| 
     541 0000001a       ||$C$L3||:    
     542                      .dwpsn  file "D:\ti\c2000\C2000Ware_5_04_00_00\driverlib\f28003x\driverlib\sysctl.h",line 1331,column
     543 0000001a 8F05          MOVL      XAR4,#381490          ; [CPU_ARAU] |1331| 
         0000001b D232 
     544 0000001c 18C4          AND       *+XAR4[0],#0xfffe     ; [CPU_ALU] |1331| 
         0000001d FFFE 
     545                      .dwpsn  file "D:\ti\c2000\C2000Ware_5_04_00_00\driverlib\f28003x\driverlib\sysctl.h",line 1332,column
     546 0000001e F62D   RPT #45 || NOP
         0000001f 7700 
     547                      .dwpsn  file "D:\ti\c2000\C2000Ware_5_04_00_00\driverlib\f28003x\driverlib\sysctl.h",line 1334,column
     548 00000020 6F09          B         ||$C$L5||,UNC         ; [CPU_ALU] |1334| 
     549                      ; branch occurs ; [] |1334| 
     550 00000021       ||$C$L4||:    
     551                      .dwpsn  file "D:\ti\c2000\C2000Ware_5_04_00_00\driverlib\f28003x\driverlib\sysctl.h",line 1316,column
     552 00000021 C442          MOVL      XAR6,*-SP[2]          ; [CPU_ALU] |1316| 
     553 00000022 06A6          MOVL      ACC,XAR6              ; [CPU_ALU] |1316| 
     554 00000023 61EE          B         ||$C$L2||,EQ          ; [CPU_ALU] |1316| 
     555                      ; branchcc occurs ; [] |1316| 
     556 00000024 8F01          MOVL      XAR4,#65536           ; [CPU_ARAU] |1316| 
         00000025 0000 
     557 00000026 A8A9          MOVL      ACC,XAR4              ; [CPU_ALU] |1316| 
     558 00000027 0FA6          CMPL      ACC,XAR6              ; [CPU_ALU] |1316| 
     559 00000028 61F2          B         ||$C$L3||,EQ          ; [CPU_ALU] |1316| 
     560                      ; branchcc occurs ; [] |1316| 
     561 00000029       ||$C$L5||:    
     562                      .dwpsn  file "D:\ti\c2000\C2000Ware_5_04_00_00\driverlib\f28003x\driverlib\sysctl.h",line 1343,column
     563 00000029 761A          EDIS      ; [CPU_ALU] |1343| 
     564                      .dwpsn  file "D:\ti\c2000\C2000Ware_5_04_00_00\driverlib\f28003x\driverlib\sysctl.h",line 1344,column
     565 0000002a FE82          SUBB      SP,#2                 ; [CPU_ARAU] 
     566                      .dwcfi  cfa_offset, -2
     567 0000002b FF69          SPM       #0                    ; [CPU_ALU] 
     568              $C$DW$43        .dwtag  DW_TAG_TI_branch
     569                      .dwattr $C$DW$43, DW_AT_low_pc(0x00)
     570                      .dwattr $C$DW$43, DW_AT_TI_return
     571              
     572 0000002c 0006          LRETR     ; [CPU_ALU] 
     573                      ; return occurs ; [] 
     574                      .dwattr $C$DW$39, DW_AT_TI_end_file("D:\ti\c2000\C2000Ware_5_04_00_00\driverlib\f28003x\driverlib\sys
     575                      .dwattr $C$DW$39, DW_AT_TI_end_line(0x540)
     576                      .dwattr $C$DW$39, DW_AT_TI_end_column(0x01)
     577                      .dwendentry
     578                      .dwendtag $C$DW$39
     579              
     580 00000000               .sect   ".text:SysCtl_disableWatchdog"
     581                      .clink
     582              
     583              $C$DW$44        .dwtag  DW_TAG_subprogram
TMS320C2000 Assembler PC v22.6.1 Wed Jan 22 15:42:10 2025

Copyright (c) 1996-2018 Texas Instruments Incorporated
C:\Users\Admin\AppData\Local\Temp\{72586B83-0C91-403C-A2FF-A215999388C2} PAGE   12

     584                      .dwattr $C$DW$44, DW_AT_name("SysCtl_disableWatchdog")
     585                      .dwattr $C$DW$44, DW_AT_low_pc(||SysCtl_disableWatchdog||)
     586                      .dwattr $C$DW$44, DW_AT_high_pc(0x00)
     587                      .dwattr $C$DW$44, DW_AT_linkage_name("SysCtl_disableWatchdog")
     588                      .dwattr $C$DW$44, DW_AT_decl_file("D:\ti\c2000\C2000Ware_5_04_00_00\driverlib\f28003x\driverlib\sysct
     589                      .dwattr $C$DW$44, DW_AT_decl_line(0x710)
     590                      .dwattr $C$DW$44, DW_AT_decl_column(0x01)
     591                      .dwattr $C$DW$44, DW_AT_TI_max_frame_size(-2)
     592                      .dwpsn  file "D:\ti\c2000\C2000Ware_5_04_00_00\driverlib\f28003x\driverlib\sysctl.h",line 1809,column
     593              
     594                      .dwfde $C$DW$CIE, ||SysCtl_disableWatchdog||
     595              
     596              ;***************************************************************
     597              ;* FNAME: SysCtl_disableWatchdog        FR SIZE:   0           *
     598              ;*                                                             *
     599              ;* FUNCTION ENVIRONMENT                                        *
     600              ;*                                                             *
     601              ;* FUNCTION PROPERTIES                                         *
     602              ;*                            0 Parameter,  0 Auto,  0 SOE     *
     603              ;***************************************************************
     604              
     605 00000000       ||SysCtl_disableWatchdog||:
     606                      .dwcfi  cfa_offset, -2
     607                      .dwcfi  save_reg_to_mem, 26, 0
     608                      .dwpsn  file "D:\ti\c2000\C2000Ware_5_04_00_00\driverlib\f28003x\driverlib\sysctl.h",line 1810,column
     609 00000000 7622          EALLOW    ; [CPU_ALU] |1810| 
     610                      .dwpsn  file "D:\ti\c2000\C2000Ware_5_04_00_00\driverlib\f28003x\driverlib\sysctl.h",line 1815,column
     611 00000001 F5A9          MOV       AL,*(0:0x7029)        ; [CPU_ALU] |1815| 
         00000002 7029 
     612 00000003 5068          ORB       AL,#0x68              ; [CPU_ALU] |1815| 
     613 00000004 F4A9          MOV       *(0:0x7029),AL        ; [CPU_ALU] |1815| 
         00000005 7029 
     614                      .dwpsn  file "D:\ti\c2000\C2000Ware_5_04_00_00\driverlib\f28003x\driverlib\sysctl.h",line 1816,column
     615 00000006 F62D   RPT #45 || NOP
         00000007 7700 
     616                      .dwpsn  file "D:\ti\c2000\C2000Ware_5_04_00_00\driverlib\f28003x\driverlib\sysctl.h",line 1818,column
     617 00000008 761A          EDIS      ; [CPU_ALU] |1818| 
     618                      .dwpsn  file "D:\ti\c2000\C2000Ware_5_04_00_00\driverlib\f28003x\driverlib\sysctl.h",line 1819,column
     619 00000009 FF69          SPM       #0                    ; [CPU_ALU] 
     620              $C$DW$45        .dwtag  DW_TAG_TI_branch
     621                      .dwattr $C$DW$45, DW_AT_low_pc(0x00)
     622                      .dwattr $C$DW$45, DW_AT_TI_return
     623              
     624 0000000a 0006          LRETR     ; [CPU_ALU] 
     625                      ; return occurs ; [] 
     626                      .dwattr $C$DW$44, DW_AT_TI_end_file("D:\ti\c2000\C2000Ware_5_04_00_00\driverlib\f28003x\driverlib\sys
     627                      .dwattr $C$DW$44, DW_AT_TI_end_line(0x71b)
     628                      .dwattr $C$DW$44, DW_AT_TI_end_column(0x01)
     629                      .dwendentry
     630                      .dwendtag $C$DW$44
     631              
     632 00000000               .sect   ".text:GPIO_unlockPortConfig"
     633                      .clink
     634              
     635              $C$DW$46        .dwtag  DW_TAG_subprogram
TMS320C2000 Assembler PC v22.6.1 Wed Jan 22 15:42:10 2025

Copyright (c) 1996-2018 Texas Instruments Incorporated
C:\Users\Admin\AppData\Local\Temp\{72586B83-0C91-403C-A2FF-A215999388C2} PAGE   13

     636                      .dwattr $C$DW$46, DW_AT_name("GPIO_unlockPortConfig")
     637                      .dwattr $C$DW$46, DW_AT_low_pc(||GPIO_unlockPortConfig||)
     638                      .dwattr $C$DW$46, DW_AT_high_pc(0x00)
     639                      .dwattr $C$DW$46, DW_AT_linkage_name("GPIO_unlockPortConfig")
     640                      .dwattr $C$DW$46, DW_AT_decl_file("D:/ti/c2000/C2000Ware_5_04_00_00/driverlib/f28003x/driverlib/gpio.
     641                      .dwattr $C$DW$46, DW_AT_decl_line(0x312)
     642                      .dwattr $C$DW$46, DW_AT_decl_column(0x01)
     643                      .dwattr $C$DW$46, DW_AT_TI_max_frame_size(-8)
     644                      .dwpsn  file "D:/ti/c2000/C2000Ware_5_04_00_00/driverlib/f28003x/driverlib/gpio.h",line 787,column 1,
     645              
     646                      .dwfde $C$DW$CIE, ||GPIO_unlockPortConfig||
     647              $C$DW$47        .dwtag  DW_TAG_formal_parameter
     648                      .dwattr $C$DW$47, DW_AT_name("port")
     649                      .dwattr $C$DW$47, DW_AT_type(*$C$DW$T$28)
     650                      .dwattr $C$DW$47, DW_AT_location[DW_OP_reg12]
     651              
     652              $C$DW$48        .dwtag  DW_TAG_formal_parameter
     653                      .dwattr $C$DW$48, DW_AT_name("pinMask")
     654                      .dwattr $C$DW$48, DW_AT_type(*$C$DW$T$38)
     655                      .dwattr $C$DW$48, DW_AT_location[DW_OP_reg0]
     656              
     657              
     658              ;***************************************************************
     659              ;* FNAME: GPIO_unlockPortConfig         FR SIZE:   6           *
     660              ;*                                                             *
     661              ;* FUNCTION ENVIRONMENT                                        *
     662              ;*                                                             *
     663              ;* FUNCTION PROPERTIES                                         *
     664              ;*                            0 Parameter,  5 Auto,  0 SOE     *
     665              ;***************************************************************
     666              
     667 00000000       ||GPIO_unlockPortConfig||:
     668                      .dwcfi  cfa_offset, -2
     669                      .dwcfi  save_reg_to_mem, 26, 0
     670 00000000 FE06          ADDB      SP,#6                 ; [CPU_ARAU] 
     671                      .dwcfi  cfa_offset, -8
     672              $C$DW$49        .dwtag  DW_TAG_variable
     673                      .dwattr $C$DW$49, DW_AT_name("pinMask")
     674                      .dwattr $C$DW$49, DW_AT_type(*$C$DW$T$38)
     675                      .dwattr $C$DW$49, DW_AT_location[DW_OP_breg20 -2]
     676              
     677              $C$DW$50        .dwtag  DW_TAG_variable
     678                      .dwattr $C$DW$50, DW_AT_name("gpioDataReg")
     679                      .dwattr $C$DW$50, DW_AT_type(*$C$DW$T$62)
     680                      .dwattr $C$DW$50, DW_AT_location[DW_OP_breg20 -4]
     681              
     682              $C$DW$51        .dwtag  DW_TAG_variable
     683                      .dwattr $C$DW$51, DW_AT_name("port")
     684                      .dwattr $C$DW$51, DW_AT_type(*$C$DW$T$28)
     685                      .dwattr $C$DW$51, DW_AT_location[DW_OP_breg20 -5]
     686              
     687 00000001 7C45          MOV       *-SP[5],AR4           ; [CPU_ALU] |787| 
     688 00000002 1E42          MOVL      *-SP[2],ACC           ; [CPU_ALU] |787| 
     689                      .dwpsn  file "D:/ti/c2000/C2000Ware_5_04_00_00/driverlib/f28003x/driverlib/gpio.h",line 793,column 5,
     690 00000003 2901          CLRC      SXM                   ; [CPU_ALU] 
TMS320C2000 Assembler PC v22.6.1 Wed Jan 22 15:42:10 2025

Copyright (c) 1996-2018 Texas Instruments Incorporated
C:\Users\Admin\AppData\Local\Temp\{72586B83-0C91-403C-A2FF-A215999388C2} PAGE   14

     691 00000004 5603          MOV       ACC,*-SP[5] << 5      ; [CPU_ALU] |793| 
         00000005 0545 
     692 00000006 FF30          LSL       ACC,1                 ; [CPU_ALU] |793| 
     693 00000007 FF1A          ADD       ACC,#31 << 10         ; [CPU_ALU] |793| 
         00000008 001F 
     694 00000009 1E44          MOVL      *-SP[4],ACC           ; [CPU_ALU] |793| 
     695                      .dwpsn  file "D:/ti/c2000/C2000Ware_5_04_00_00/driverlib/f28003x/driverlib/gpio.h",line 796,column 5,
     696 0000000a 7622          EALLOW    ; [CPU_ALU] |796| 
     697                      .dwpsn  file "D:/ti/c2000/C2000Ware_5_04_00_00/driverlib/f28003x/driverlib/gpio.h",line 797,column 5,
     698 0000000b 023C          MOVB      ACC,#60               ; [CPU_ALU] |797| 
     699 0000000c 0744          ADDL      ACC,*-SP[4]           ; [CPU_ALU] |797| 
     700 0000000d 8AA9          MOVL      XAR4,ACC              ; [CPU_ALU] |797| 
     701 0000000e 0642          MOVL      ACC,*-SP[2]           ; [CPU_ALU] |797| 
     702 0000000f FF55          NOT       ACC                   ; [CPU_ALU] |797| 
     703 00000010 C0C4          AND       *+XAR4[0],AL          ; [CPU_ALU] |797| 
     704 00000011 C1CC          AND       *+XAR4[1],AH          ; [CPU_ALU] |797| 
     705                      .dwpsn  file "D:/ti/c2000/C2000Ware_5_04_00_00/driverlib/f28003x/driverlib/gpio.h",line 798,column 5,
     706 00000012 761A          EDIS      ; [CPU_ALU] |798| 
     707                      .dwpsn  file "D:/ti/c2000/C2000Ware_5_04_00_00/driverlib/f28003x/driverlib/gpio.h",line 799,column 1,
     708 00000013 FE86          SUBB      SP,#6                 ; [CPU_ARAU] 
     709                      .dwcfi  cfa_offset, -2
     710              $C$DW$52        .dwtag  DW_TAG_TI_branch
     711                      .dwattr $C$DW$52, DW_AT_low_pc(0x00)
     712                      .dwattr $C$DW$52, DW_AT_TI_return
     713              
     714 00000014 0006          LRETR     ; [CPU_ALU] 
     715                      ; return occurs ; [] 
     716                      .dwattr $C$DW$46, DW_AT_TI_end_file("D:/ti/c2000/C2000Ware_5_04_00_00/driverlib/f28003x/driverlib/gpi
     717                      .dwattr $C$DW$46, DW_AT_TI_end_line(0x31f)
     718                      .dwattr $C$DW$46, DW_AT_TI_end_column(0x01)
     719                      .dwendentry
     720                      .dwendtag $C$DW$46
     721              
     722 00000000               .sect   ".text:Device_init"
     723                      .clink
     724                      .global ||Device_init||
     725              
     726              $C$DW$53        .dwtag  DW_TAG_subprogram
     727                      .dwattr $C$DW$53, DW_AT_name("Device_init")
     728                      .dwattr $C$DW$53, DW_AT_low_pc(||Device_init||)
     729                      .dwattr $C$DW$53, DW_AT_high_pc(0x00)
     730                      .dwattr $C$DW$53, DW_AT_linkage_name("Device_init")
     731                      .dwattr $C$DW$53, DW_AT_external
     732                      .dwattr $C$DW$53, DW_AT_decl_file("../device/device.c")
     733                      .dwattr $C$DW$53, DW_AT_decl_line(0x43)
     734                      .dwattr $C$DW$53, DW_AT_decl_column(0x06)
     735                      .dwattr $C$DW$53, DW_AT_TI_max_frame_size(-2)
     736                      .dwpsn  file "../device/device.c",line 68,column 1,is_stmt,address ||Device_init||,isa 0
     737              
     738                      .dwfde $C$DW$CIE, ||Device_init||
     739              
     740              ;***************************************************************
     741              ;* FNAME: Device_init                   FR SIZE:   0           *
     742              ;*                                                             *
     743              ;* FUNCTION ENVIRONMENT                                        *
TMS320C2000 Assembler PC v22.6.1 Wed Jan 22 15:42:10 2025

Copyright (c) 1996-2018 Texas Instruments Incorporated
C:\Users\Admin\AppData\Local\Temp\{72586B83-0C91-403C-A2FF-A215999388C2} PAGE   15

     744              ;*                                                             *
     745              ;* FUNCTION PROPERTIES                                         *
     746              ;*                            0 Parameter,  0 Auto,  0 SOE     *
     747              ;***************************************************************
     748              
     749 00000000       ||Device_init||:
     750                      .dwcfi  cfa_offset, -2
     751                      .dwcfi  save_reg_to_mem, 26, 0
     752                      .dwpsn  file "../device/device.c",line 72,column 5,is_stmt,isa 0
     753              $C$DW$54        .dwtag  DW_TAG_TI_branch
     754                      .dwattr $C$DW$54, DW_AT_low_pc(0x00)
     755                      .dwattr $C$DW$54, DW_AT_name("SysCtl_disableWatchdog")
     756                      .dwattr $C$DW$54, DW_AT_TI_call
     757              
     758 00000000 7640!         LCR       #||SysCtl_disableWatchdog|| ; [CPU_ALU] |72| 
         00000001 0000 
     759                      ; call occurs [#||SysCtl_disableWatchdog||] ; [] |72| 
     760                      .dwpsn  file "../device/device.c",line 74,column 5,is_stmt,isa 0
     761              $C$DW$55        .dwtag  DW_TAG_TI_branch
     762                      .dwattr $C$DW$55, DW_AT_low_pc(0x00)
     763                      .dwattr $C$DW$55, DW_AT_name("CMD_init")
     764                      .dwattr $C$DW$55, DW_AT_TI_call
     765              
     766 00000002 7640!         LCR       #||CMD_init||         ; [CPU_ALU] |74| 
         00000003 0000 
     767                      ; call occurs [#||CMD_init||] ; [] |74| 
     768                      .dwpsn  file "../device/device.c",line 98,column 5,is_stmt,isa 0
     769 00000004 28A9          MOV       AL,#304               ; [CPU_ALU] |98| 
         00000005 0130 
     770 00000006 28A8          MOV       AH,#33157             ; [CPU_ALU] |98| 
         00000007 8185 
     771              $C$DW$56        .dwtag  DW_TAG_TI_branch
     772                      .dwattr $C$DW$56, DW_AT_low_pc(0x00)
     773                      .dwattr $C$DW$56, DW_AT_name("SysCtl_setClock")
     774                      .dwattr $C$DW$56, DW_AT_TI_call
     775              
     776 00000008 7640!         LCR       #||SysCtl_setClock||  ; [CPU_ALU] |98| 
         00000009 0000 
     777                      ; call occurs [#||SysCtl_setClock||] ; [] |98| 
     778                      .dwpsn  file "../device/device.c",line 103,column 5,is_stmt,isa 0
     779 0000000a 9A02          MOVB      AL,#2                 ; [CPU_ALU] |103| 
     780              $C$DW$57        .dwtag  DW_TAG_TI_branch
     781                      .dwattr $C$DW$57, DW_AT_low_pc(0x00)
     782                      .dwattr $C$DW$57, DW_AT_name("SysCtl_setLowSpeedClock")
     783                      .dwattr $C$DW$57, DW_AT_TI_call
     784              
     785 0000000b 7640!         LCR       #||SysCtl_setLowSpeedClock|| ; [CPU_ALU] |103| 
         0000000c 0000 
     786                      ; call occurs [#||SysCtl_setLowSpeedClock||] ; [] |103| 
     787                      .dwpsn  file "../device/device.c",line 112,column 5,is_stmt,isa 0
     788 0000000d 28A9          MOV       AL,#11520             ; [CPU_ALU] |112| 
         0000000e 2D00 
     789 0000000f 28A8          MOV       AH,#305               ; [CPU_ALU] |112| 
         00000010 0131 
     790              $C$DW$58        .dwtag  DW_TAG_TI_branch
TMS320C2000 Assembler PC v22.6.1 Wed Jan 22 15:42:10 2025

Copyright (c) 1996-2018 Texas Instruments Incorporated
C:\Users\Admin\AppData\Local\Temp\{72586B83-0C91-403C-A2FF-A215999388C2} PAGE   16

     791                      .dwattr $C$DW$58, DW_AT_low_pc(0x00)
     792                      .dwattr $C$DW$58, DW_AT_name("SysCtl_getClock")
     793                      .dwattr $C$DW$58, DW_AT_TI_call
     794              
     795 00000011 7640!         LCR       #||SysCtl_getClock||  ; [CPU_ALU] |112| 
         00000012 0000 
     796                      ; call occurs [#||SysCtl_getClock||] ; [] |112| 
     797 00000013 1EA6          MOVL      XAR6,ACC              ; [CPU_ALU] |112| 
     798 00000014 28A9          MOV       AL,#3584              ; [CPU_ALU] |112| 
         00000015 0E00 
     799 00000016 28A8          MOV       AH,#1831              ; [CPU_ALU] |112| 
         00000017 0727 
     800 00000018 0FA6          CMPL      ACC,XAR6              ; [CPU_ALU] |112| 
     801 00000019 6106          B         ||$C$L6||,EQ          ; [CPU_ALU] |112| 
     802                      ; branchcc occurs ; [] |112| 
     803 0000001a 8F00!         MOVL      XAR4,#$C$FSL2         ; [CPU_ARAU] |112| 
         0000001b 0000 
     804 0000001c 0270          MOVB      ACC,#112              ; [CPU_ALU] |112| 
     805              $C$DW$59        .dwtag  DW_TAG_TI_branch
     806                      .dwattr $C$DW$59, DW_AT_low_pc(0x00)
     807                      .dwattr $C$DW$59, DW_AT_name("__error__")
     808                      .dwattr $C$DW$59, DW_AT_TI_call
     809              
     810 0000001d 7640!         LCR       #||__error__||        ; [CPU_ALU] |112| 
         0000001e 0000 
     811                      ; call occurs [#||__error__||] ; [] |112| 
     812 0000001f       ||$C$L6||:    
     813                      .dwpsn  file "../device/device.c",line 113,column 5,is_stmt,isa 0
     814 0000001f 28A9          MOV       AL,#11520             ; [CPU_ALU] |113| 
         00000020 2D00 
     815 00000021 28A8          MOV       AH,#305               ; [CPU_ALU] |113| 
         00000022 0131 
     816              $C$DW$60        .dwtag  DW_TAG_TI_branch
     817                      .dwattr $C$DW$60, DW_AT_low_pc(0x00)
     818                      .dwattr $C$DW$60, DW_AT_name("SysCtl_getLowSpeedClock")
     819                      .dwattr $C$DW$60, DW_AT_TI_call
     820              
     821 00000023 7640!         LCR       #||SysCtl_getLowSpeedClock|| ; [CPU_ALU] |113| 
         00000024 0000 
     822                      ; call occurs [#||SysCtl_getLowSpeedClock||] ; [] |113| 
     823 00000025 1EA6          MOVL      XAR6,ACC              ; [CPU_ALU] |113| 
     824 00000026 28A9          MOV       AL,#50048             ; [CPU_ALU] |113| 
         00000027 C380 
     825 00000028 28A8          MOV       AH,#457               ; [CPU_ALU] |113| 
         00000029 01C9 
     826 0000002a 0FA6          CMPL      ACC,XAR6              ; [CPU_ALU] |113| 
     827 0000002b 6106          B         ||$C$L7||,EQ          ; [CPU_ALU] |113| 
     828                      ; branchcc occurs ; [] |113| 
     829 0000002c 8F00!         MOVL      XAR4,#$C$FSL2         ; [CPU_ARAU] |113| 
         0000002d 0000 
     830 0000002e 0271          MOVB      ACC,#113              ; [CPU_ALU] |113| 
     831              $C$DW$61        .dwtag  DW_TAG_TI_branch
     832                      .dwattr $C$DW$61, DW_AT_low_pc(0x00)
     833                      .dwattr $C$DW$61, DW_AT_name("__error__")
     834                      .dwattr $C$DW$61, DW_AT_TI_call
TMS320C2000 Assembler PC v22.6.1 Wed Jan 22 15:42:10 2025

Copyright (c) 1996-2018 Texas Instruments Incorporated
C:\Users\Admin\AppData\Local\Temp\{72586B83-0C91-403C-A2FF-A215999388C2} PAGE   17

     835              
     836 0000002f 7640!         LCR       #||__error__||        ; [CPU_ALU] |113| 
         00000030 0000 
     837                      ; call occurs [#||__error__||] ; [] |113| 
     838 00000031       ||$C$L7||:    
     839                      .dwpsn  file "../device/device.c",line 124,column 5,is_stmt,isa 0
     840              $C$DW$62        .dwtag  DW_TAG_TI_branch
     841                      .dwattr $C$DW$62, DW_AT_low_pc(0x00)
     842                      .dwattr $C$DW$62, DW_AT_name("SysCtl_deviceCal")
     843                      .dwattr $C$DW$62, DW_AT_TI_call
     844              
     845 00000031 7640!         LCR       #||SysCtl_deviceCal|| ; [CPU_ALU] |124| 
         00000032 0000 
     846                      ; call occurs [#||SysCtl_deviceCal||] ; [] |124| 
     847                      .dwpsn  file "../device/device.c",line 130,column 5,is_stmt,isa 0
     848              $C$DW$63        .dwtag  DW_TAG_TI_branch
     849                      .dwattr $C$DW$63, DW_AT_low_pc(0x00)
     850                      .dwattr $C$DW$63, DW_AT_name("Device_enableAllPeripherals")
     851                      .dwattr $C$DW$63, DW_AT_TI_call
     852              
     853 00000033 7640!         LCR       #||Device_enableAllPeripherals|| ; [CPU_ALU] |130| 
         00000034 0000 
     854                      ; call occurs [#||Device_enableAllPeripherals||] ; [] |130| 
     855                      .dwpsn  file "../device/device.c",line 137,column 5,is_stmt,isa 0
     856              $C$DW$64        .dwtag  DW_TAG_TI_branch
     857                      .dwattr $C$DW$64, DW_AT_low_pc(0x00)
     858                      .dwattr $C$DW$64, DW_AT_name("ASysCtl_lockVREG")
     859                      .dwattr $C$DW$64, DW_AT_TI_call
     860              
     861 00000035 7640!         LCR       #||ASysCtl_lockVREG|| ; [CPU_ALU] |137| 
         00000036 0000 
     862                      ; call occurs [#||ASysCtl_lockVREG||] ; [] |137| 
     863                      .dwpsn  file "../device/device.c",line 142,column 5,is_stmt,isa 0
     864 00000037 D400          MOVB      XAR4,#0               ; [CPU_ALU] |142| 
     865 00000038 0214          MOVB      ACC,#20               ; [CPU_ALU] |142| 
     866              $C$DW$65        .dwtag  DW_TAG_TI_branch
     867                      .dwattr $C$DW$65, DW_AT_low_pc(0x00)
     868                      .dwattr $C$DW$65, DW_AT_name("GPIO_setAnalogMode")
     869                      .dwattr $C$DW$65, DW_AT_TI_call
     870              
     871 00000039 7640!         LCR       #||GPIO_setAnalogMode|| ; [CPU_ALU] |142| 
         0000003a 0000 
     872                      ; call occurs [#||GPIO_setAnalogMode||] ; [] |142| 
     873                      .dwpsn  file "../device/device.c",line 143,column 5,is_stmt,isa 0
     874 0000003b D400          MOVB      XAR4,#0               ; [CPU_ALU] |143| 
     875 0000003c 0215          MOVB      ACC,#21               ; [CPU_ALU] |143| 
     876              $C$DW$66        .dwtag  DW_TAG_TI_branch
     877                      .dwattr $C$DW$66, DW_AT_low_pc(0x00)
     878                      .dwattr $C$DW$66, DW_AT_name("GPIO_setAnalogMode")
     879                      .dwattr $C$DW$66, DW_AT_TI_call
     880              
     881 0000003d 7640!         LCR       #||GPIO_setAnalogMode|| ; [CPU_ALU] |143| 
         0000003e 0000 
     882                      ; call occurs [#||GPIO_setAnalogMode||] ; [] |143| 
     883                      .dwpsn  file "../device/device.c",line 144,column 1,is_stmt,isa 0
TMS320C2000 Assembler PC v22.6.1 Wed Jan 22 15:42:10 2025

Copyright (c) 1996-2018 Texas Instruments Incorporated
C:\Users\Admin\AppData\Local\Temp\{72586B83-0C91-403C-A2FF-A215999388C2} PAGE   18

     884              $C$DW$67        .dwtag  DW_TAG_TI_branch
     885                      .dwattr $C$DW$67, DW_AT_low_pc(0x00)
     886                      .dwattr $C$DW$67, DW_AT_TI_return
     887              
     888 0000003f 0006          LRETR     ; [CPU_ALU] 
     889                      ; return occurs ; [] 
     890                      .dwattr $C$DW$53, DW_AT_TI_end_file("../device/device.c")
     891                      .dwattr $C$DW$53, DW_AT_TI_end_line(0x90)
     892                      .dwattr $C$DW$53, DW_AT_TI_end_column(0x01)
     893                      .dwendentry
     894                      .dwendtag $C$DW$53
     895              
     896 00000000               .sect   ".text:Device_enableAllPeripherals"
     897                      .clink
     898                      .global ||Device_enableAllPeripherals||
     899              
     900              $C$DW$68        .dwtag  DW_TAG_subprogram
     901                      .dwattr $C$DW$68, DW_AT_name("Device_enableAllPeripherals")
     902                      .dwattr $C$DW$68, DW_AT_low_pc(||Device_enableAllPeripherals||)
     903                      .dwattr $C$DW$68, DW_AT_high_pc(0x00)
     904                      .dwattr $C$DW$68, DW_AT_linkage_name("Device_enableAllPeripherals")
     905                      .dwattr $C$DW$68, DW_AT_external
     906                      .dwattr $C$DW$68, DW_AT_decl_file("../device/device.c")
     907                      .dwattr $C$DW$68, DW_AT_decl_line(0x9a)
     908                      .dwattr $C$DW$68, DW_AT_decl_column(0x06)
     909                      .dwattr $C$DW$68, DW_AT_TI_max_frame_size(-2)
     910                      .dwpsn  file "../device/device.c",line 155,column 1,is_stmt,address ||Device_enableAllPeripherals||,i
     911              
     912                      .dwfde $C$DW$CIE, ||Device_enableAllPeripherals||
     913              
     914              ;***************************************************************
     915              ;* FNAME: Device_enableAllPeripherals   FR SIZE:   0           *
     916              ;*                                                             *
     917              ;* FUNCTION ENVIRONMENT                                        *
     918              ;*                                                             *
     919              ;* FUNCTION PROPERTIES                                         *
     920              ;*                            0 Parameter,  0 Auto,  0 SOE     *
     921              ;***************************************************************
     922              
     923 00000000       ||Device_enableAllPeripherals||:
     924                      .dwcfi  cfa_offset, -2
     925                      .dwcfi  save_reg_to_mem, 26, 0
     926                      .dwpsn  file "../device/device.c",line 156,column 5,is_stmt,isa 0
     927 00000000 9A00          MOVB      AL,#0                 ; [CPU_ALU] |156| 
     928              $C$DW$69        .dwtag  DW_TAG_TI_branch
     929                      .dwattr $C$DW$69, DW_AT_low_pc(0x00)
     930                      .dwattr $C$DW$69, DW_AT_name("SysCtl_enablePeripheral")
     931                      .dwattr $C$DW$69, DW_AT_TI_call
     932              
     933 00000001 7640!         LCR       #||SysCtl_enablePeripheral|| ; [CPU_ALU] |156| 
         00000002 0000 
     934                      ; call occurs [#||SysCtl_enablePeripheral||] ; [] |156| 
     935                      .dwpsn  file "../device/device.c",line 157,column 5,is_stmt,isa 0
     936 00000003 28A9          MOV       AL,#512               ; [CPU_ALU] |157| 
         00000004 0200 
TMS320C2000 Assembler PC v22.6.1 Wed Jan 22 15:42:10 2025

Copyright (c) 1996-2018 Texas Instruments Incorporated
C:\Users\Admin\AppData\Local\Temp\{72586B83-0C91-403C-A2FF-A215999388C2} PAGE   19

     937              $C$DW$70        .dwtag  DW_TAG_TI_branch
     938                      .dwattr $C$DW$70, DW_AT_low_pc(0x00)
     939                      .dwattr $C$DW$70, DW_AT_name("SysCtl_enablePeripheral")
     940                      .dwattr $C$DW$70, DW_AT_TI_call
     941              
     942 00000005 7640!         LCR       #||SysCtl_enablePeripheral|| ; [CPU_ALU] |157| 
         00000006 0000 
     943                      ; call occurs [#||SysCtl_enablePeripheral||] ; [] |157| 
     944                      .dwpsn  file "../device/device.c",line 158,column 5,is_stmt,isa 0
     945 00000007 28A9          MOV       AL,#768               ; [CPU_ALU] |158| 
         00000008 0300 
     946              $C$DW$71        .dwtag  DW_TAG_TI_branch
     947                      .dwattr $C$DW$71, DW_AT_low_pc(0x00)
     948                      .dwattr $C$DW$71, DW_AT_name("SysCtl_enablePeripheral")
     949                      .dwattr $C$DW$71, DW_AT_TI_call
     950              
     951 00000009 7640!         LCR       #||SysCtl_enablePeripheral|| ; [CPU_ALU] |158| 
         0000000a 0000 
     952                      ; call occurs [#||SysCtl_enablePeripheral||] ; [] |158| 
     953                      .dwpsn  file "../device/device.c",line 159,column 5,is_stmt,isa 0
     954 0000000b 28A9          MOV       AL,#1024              ; [CPU_ALU] |159| 
         0000000c 0400 
     955              $C$DW$72        .dwtag  DW_TAG_TI_branch
     956                      .dwattr $C$DW$72, DW_AT_low_pc(0x00)
     957                      .dwattr $C$DW$72, DW_AT_name("SysCtl_enablePeripheral")
     958                      .dwattr $C$DW$72, DW_AT_TI_call
     959              
     960 0000000d 7640!         LCR       #||SysCtl_enablePeripheral|| ; [CPU_ALU] |159| 
         0000000e 0000 
     961                      ; call occurs [#||SysCtl_enablePeripheral||] ; [] |159| 
     962                      .dwpsn  file "../device/device.c",line 160,column 5,is_stmt,isa 0
     963 0000000f 28A9          MOV       AL,#1280              ; [CPU_ALU] |160| 
         00000010 0500 
     964              $C$DW$73        .dwtag  DW_TAG_TI_branch
     965                      .dwattr $C$DW$73, DW_AT_low_pc(0x00)
     966                      .dwattr $C$DW$73, DW_AT_name("SysCtl_enablePeripheral")
     967                      .dwattr $C$DW$73, DW_AT_TI_call
     968              
     969 00000011 7640!         LCR       #||SysCtl_enablePeripheral|| ; [CPU_ALU] |160| 
         00000012 0000 
     970                      ; call occurs [#||SysCtl_enablePeripheral||] ; [] |160| 
     971                      .dwpsn  file "../device/device.c",line 161,column 5,is_stmt,isa 0
     972 00000013 28A9          MOV       AL,#3328              ; [CPU_ALU] |161| 
         00000014 0D00 
     973              $C$DW$74        .dwtag  DW_TAG_TI_branch
     974                      .dwattr $C$DW$74, DW_AT_low_pc(0x00)
     975                      .dwattr $C$DW$74, DW_AT_name("SysCtl_enablePeripheral")
     976                      .dwattr $C$DW$74, DW_AT_TI_call
     977              
     978 00000015 7640!         LCR       #||SysCtl_enablePeripheral|| ; [CPU_ALU] |161| 
         00000016 0000 
     979                      ; call occurs [#||SysCtl_enablePeripheral||] ; [] |161| 
     980                      .dwpsn  file "../device/device.c",line 162,column 5,is_stmt,isa 0
     981 00000017 28A9          MOV       AL,#3584              ; [CPU_ALU] |162| 
         00000018 0E00 
TMS320C2000 Assembler PC v22.6.1 Wed Jan 22 15:42:10 2025

Copyright (c) 1996-2018 Texas Instruments Incorporated
C:\Users\Admin\AppData\Local\Temp\{72586B83-0C91-403C-A2FF-A215999388C2} PAGE   20

     982              $C$DW$75        .dwtag  DW_TAG_TI_branch
     983                      .dwattr $C$DW$75, DW_AT_low_pc(0x00)
     984                      .dwattr $C$DW$75, DW_AT_name("SysCtl_enablePeripheral")
     985                      .dwattr $C$DW$75, DW_AT_TI_call
     986              
     987 00000019 7640!         LCR       #||SysCtl_enablePeripheral|| ; [CPU_ALU] |162| 
         0000001a 0000 
     988                      ; call occurs [#||SysCtl_enablePeripheral||] ; [] |162| 
     989                      .dwpsn  file "../device/device.c",line 163,column 5,is_stmt,isa 0
     990 0000001b 28A9          MOV       AL,#4096              ; [CPU_ALU] |163| 
         0000001c 1000 
     991              $C$DW$76        .dwtag  DW_TAG_TI_branch
     992                      .dwattr $C$DW$76, DW_AT_low_pc(0x00)
     993                      .dwattr $C$DW$76, DW_AT_name("SysCtl_enablePeripheral")
     994                      .dwattr $C$DW$76, DW_AT_TI_call
     995              
     996 0000001d 7640!         LCR       #||SysCtl_enablePeripheral|| ; [CPU_ALU] |163| 
         0000001e 0000 
     997                      ; call occurs [#||SysCtl_enablePeripheral||] ; [] |163| 
     998                      .dwpsn  file "../device/device.c",line 164,column 5,is_stmt,isa 0
     999 0000001f 28A9          MOV       AL,#4608              ; [CPU_ALU] |164| 
         00000020 1200 
    1000              $C$DW$77        .dwtag  DW_TAG_TI_branch
    1001                      .dwattr $C$DW$77, DW_AT_low_pc(0x00)
    1002                      .dwattr $C$DW$77, DW_AT_name("SysCtl_enablePeripheral")
    1003                      .dwattr $C$DW$77, DW_AT_TI_call
    1004              
    1005 00000021 7640!         LCR       #||SysCtl_enablePeripheral|| ; [CPU_ALU] |164| 
         00000022 0000 
    1006                      ; call occurs [#||SysCtl_enablePeripheral||] ; [] |164| 
    1007                      .dwpsn  file "../device/device.c",line 165,column 5,is_stmt,isa 0
    1008 00000023 28A9          MOV       AL,#6144              ; [CPU_ALU] |165| 
         00000024 1800 
    1009              $C$DW$78        .dwtag  DW_TAG_TI_branch
    1010                      .dwattr $C$DW$78, DW_AT_low_pc(0x00)
    1011                      .dwattr $C$DW$78, DW_AT_name("SysCtl_enablePeripheral")
    1012                      .dwattr $C$DW$78, DW_AT_TI_call
    1013              
    1014 00000025 7640!         LCR       #||SysCtl_enablePeripheral|| ; [CPU_ALU] |165| 
         00000026 0000 
    1015                      ; call occurs [#||SysCtl_enablePeripheral||] ; [] |165| 
    1016                      .dwpsn  file "../device/device.c",line 167,column 5,is_stmt,isa 0
    1017 00000027 9A02          MOVB      AL,#2                 ; [CPU_ALU] |167| 
    1018              $C$DW$79        .dwtag  DW_TAG_TI_branch
    1019                      .dwattr $C$DW$79, DW_AT_low_pc(0x00)
    1020                      .dwattr $C$DW$79, DW_AT_name("SysCtl_enablePeripheral")
    1021                      .dwattr $C$DW$79, DW_AT_TI_call
    1022              
    1023 00000028 7640!         LCR       #||SysCtl_enablePeripheral|| ; [CPU_ALU] |167| 
         00000029 0000 
    1024                      ; call occurs [#||SysCtl_enablePeripheral||] ; [] |167| 
    1025                      .dwpsn  file "../device/device.c",line 168,column 5,is_stmt,isa 0
    1026 0000002a 28A9          MOV       AL,#258               ; [CPU_ALU] |168| 
         0000002b 0102 
    1027              $C$DW$80        .dwtag  DW_TAG_TI_branch
TMS320C2000 Assembler PC v22.6.1 Wed Jan 22 15:42:10 2025

Copyright (c) 1996-2018 Texas Instruments Incorporated
C:\Users\Admin\AppData\Local\Temp\{72586B83-0C91-403C-A2FF-A215999388C2} PAGE   21

    1028                      .dwattr $C$DW$80, DW_AT_low_pc(0x00)
    1029                      .dwattr $C$DW$80, DW_AT_name("SysCtl_enablePeripheral")
    1030                      .dwattr $C$DW$80, DW_AT_TI_call
    1031              
    1032 0000002c 7640!         LCR       #||SysCtl_enablePeripheral|| ; [CPU_ALU] |168| 
         0000002d 0000 
    1033                      ; call occurs [#||SysCtl_enablePeripheral||] ; [] |168| 
    1034                      .dwpsn  file "../device/device.c",line 169,column 5,is_stmt,isa 0
    1035 0000002e 28A9          MOV       AL,#514               ; [CPU_ALU] |169| 
         0000002f 0202 
    1036              $C$DW$81        .dwtag  DW_TAG_TI_branch
    1037                      .dwattr $C$DW$81, DW_AT_low_pc(0x00)
    1038                      .dwattr $C$DW$81, DW_AT_name("SysCtl_enablePeripheral")
    1039                      .dwattr $C$DW$81, DW_AT_TI_call
    1040              
    1041 00000030 7640!         LCR       #||SysCtl_enablePeripheral|| ; [CPU_ALU] |169| 
         00000031 0000 
    1042                      ; call occurs [#||SysCtl_enablePeripheral||] ; [] |169| 
    1043                      .dwpsn  file "../device/device.c",line 170,column 5,is_stmt,isa 0
    1044 00000032 28A9          MOV       AL,#770               ; [CPU_ALU] |170| 
         00000033 0302 
    1045              $C$DW$82        .dwtag  DW_TAG_TI_branch
    1046                      .dwattr $C$DW$82, DW_AT_low_pc(0x00)
    1047                      .dwattr $C$DW$82, DW_AT_name("SysCtl_enablePeripheral")
    1048                      .dwattr $C$DW$82, DW_AT_TI_call
    1049              
    1050 00000034 7640!         LCR       #||SysCtl_enablePeripheral|| ; [CPU_ALU] |170| 
         00000035 0000 
    1051                      ; call occurs [#||SysCtl_enablePeripheral||] ; [] |170| 
    1052                      .dwpsn  file "../device/device.c",line 171,column 5,is_stmt,isa 0
    1053 00000036 28A9          MOV       AL,#1026              ; [CPU_ALU] |171| 
         00000037 0402 
    1054              $C$DW$83        .dwtag  DW_TAG_TI_branch
    1055                      .dwattr $C$DW$83, DW_AT_low_pc(0x00)
    1056                      .dwattr $C$DW$83, DW_AT_name("SysCtl_enablePeripheral")
    1057                      .dwattr $C$DW$83, DW_AT_TI_call
    1058              
    1059 00000038 7640!         LCR       #||SysCtl_enablePeripheral|| ; [CPU_ALU] |171| 
         00000039 0000 
    1060                      ; call occurs [#||SysCtl_enablePeripheral||] ; [] |171| 
    1061                      .dwpsn  file "../device/device.c",line 172,column 5,is_stmt,isa 0
    1062 0000003a 28A9          MOV       AL,#1282              ; [CPU_ALU] |172| 
         0000003b 0502 
    1063              $C$DW$84        .dwtag  DW_TAG_TI_branch
    1064                      .dwattr $C$DW$84, DW_AT_low_pc(0x00)
    1065                      .dwattr $C$DW$84, DW_AT_name("SysCtl_enablePeripheral")
    1066                      .dwattr $C$DW$84, DW_AT_TI_call
    1067              
    1068 0000003c 7640!         LCR       #||SysCtl_enablePeripheral|| ; [CPU_ALU] |172| 
         0000003d 0000 
    1069                      ; call occurs [#||SysCtl_enablePeripheral||] ; [] |172| 
    1070                      .dwpsn  file "../device/device.c",line 173,column 5,is_stmt,isa 0
    1071 0000003e 28A9          MOV       AL,#1538              ; [CPU_ALU] |173| 
         0000003f 0602 
    1072              $C$DW$85        .dwtag  DW_TAG_TI_branch
TMS320C2000 Assembler PC v22.6.1 Wed Jan 22 15:42:10 2025

Copyright (c) 1996-2018 Texas Instruments Incorporated
C:\Users\Admin\AppData\Local\Temp\{72586B83-0C91-403C-A2FF-A215999388C2} PAGE   22

    1073                      .dwattr $C$DW$85, DW_AT_low_pc(0x00)
    1074                      .dwattr $C$DW$85, DW_AT_name("SysCtl_enablePeripheral")
    1075                      .dwattr $C$DW$85, DW_AT_TI_call
    1076              
    1077 00000040 7640!         LCR       #||SysCtl_enablePeripheral|| ; [CPU_ALU] |173| 
         00000041 0000 
    1078                      ; call occurs [#||SysCtl_enablePeripheral||] ; [] |173| 
    1079                      .dwpsn  file "../device/device.c",line 174,column 5,is_stmt,isa 0
    1080 00000042 28A9          MOV       AL,#1794              ; [CPU_ALU] |174| 
         00000043 0702 
    1081              $C$DW$86        .dwtag  DW_TAG_TI_branch
    1082                      .dwattr $C$DW$86, DW_AT_low_pc(0x00)
    1083                      .dwattr $C$DW$86, DW_AT_name("SysCtl_enablePeripheral")
    1084                      .dwattr $C$DW$86, DW_AT_TI_call
    1085              
    1086 00000044 7640!         LCR       #||SysCtl_enablePeripheral|| ; [CPU_ALU] |174| 
         00000045 0000 
    1087                      ; call occurs [#||SysCtl_enablePeripheral||] ; [] |174| 
    1088                      .dwpsn  file "../device/device.c",line 176,column 5,is_stmt,isa 0
    1089 00000046 9A03          MOVB      AL,#3                 ; [CPU_ALU] |176| 
    1090              $C$DW$87        .dwtag  DW_TAG_TI_branch
    1091                      .dwattr $C$DW$87, DW_AT_low_pc(0x00)
    1092                      .dwattr $C$DW$87, DW_AT_name("SysCtl_enablePeripheral")
    1093                      .dwattr $C$DW$87, DW_AT_TI_call
    1094              
    1095 00000047 7640!         LCR       #||SysCtl_enablePeripheral|| ; [CPU_ALU] |176| 
         00000048 0000 
    1096                      ; call occurs [#||SysCtl_enablePeripheral||] ; [] |176| 
    1097                      .dwpsn  file "../device/device.c",line 177,column 5,is_stmt,isa 0
    1098 00000049 28A9          MOV       AL,#259               ; [CPU_ALU] |177| 
         0000004a 0103 
    1099              $C$DW$88        .dwtag  DW_TAG_TI_branch
    1100                      .dwattr $C$DW$88, DW_AT_low_pc(0x00)
    1101                      .dwattr $C$DW$88, DW_AT_name("SysCtl_enablePeripheral")
    1102                      .dwattr $C$DW$88, DW_AT_TI_call
    1103              
    1104 0000004b 7640!         LCR       #||SysCtl_enablePeripheral|| ; [CPU_ALU] |177| 
         0000004c 0000 
    1105                      ; call occurs [#||SysCtl_enablePeripheral||] ; [] |177| 
    1106                      .dwpsn  file "../device/device.c",line 178,column 5,is_stmt,isa 0
    1107 0000004d 28A9          MOV       AL,#515               ; [CPU_ALU] |178| 
         0000004e 0203 
    1108              $C$DW$89        .dwtag  DW_TAG_TI_branch
    1109                      .dwattr $C$DW$89, DW_AT_low_pc(0x00)
    1110                      .dwattr $C$DW$89, DW_AT_name("SysCtl_enablePeripheral")
    1111                      .dwattr $C$DW$89, DW_AT_TI_call
    1112              
    1113 0000004f 7640!         LCR       #||SysCtl_enablePeripheral|| ; [CPU_ALU] |178| 
         00000050 0000 
    1114                      ; call occurs [#||SysCtl_enablePeripheral||] ; [] |178| 
    1115                      .dwpsn  file "../device/device.c",line 180,column 5,is_stmt,isa 0
    1116 00000051 9A04          MOVB      AL,#4                 ; [CPU_ALU] |180| 
    1117              $C$DW$90        .dwtag  DW_TAG_TI_branch
    1118                      .dwattr $C$DW$90, DW_AT_low_pc(0x00)
    1119                      .dwattr $C$DW$90, DW_AT_name("SysCtl_enablePeripheral")
TMS320C2000 Assembler PC v22.6.1 Wed Jan 22 15:42:10 2025

Copyright (c) 1996-2018 Texas Instruments Incorporated
C:\Users\Admin\AppData\Local\Temp\{72586B83-0C91-403C-A2FF-A215999388C2} PAGE   23

    1120                      .dwattr $C$DW$90, DW_AT_TI_call
    1121              
    1122 00000052 7640!         LCR       #||SysCtl_enablePeripheral|| ; [CPU_ALU] |180| 
         00000053 0000 
    1123                      ; call occurs [#||SysCtl_enablePeripheral||] ; [] |180| 
    1124                      .dwpsn  file "../device/device.c",line 181,column 5,is_stmt,isa 0
    1125 00000054 28A9          MOV       AL,#260               ; [CPU_ALU] |181| 
         00000055 0104 
    1126              $C$DW$91        .dwtag  DW_TAG_TI_branch
    1127                      .dwattr $C$DW$91, DW_AT_low_pc(0x00)
    1128                      .dwattr $C$DW$91, DW_AT_name("SysCtl_enablePeripheral")
    1129                      .dwattr $C$DW$91, DW_AT_TI_call
    1130              
    1131 00000056 7640!         LCR       #||SysCtl_enablePeripheral|| ; [CPU_ALU] |181| 
         00000057 0000 
    1132                      ; call occurs [#||SysCtl_enablePeripheral||] ; [] |181| 
    1133                      .dwpsn  file "../device/device.c",line 183,column 5,is_stmt,isa 0
    1134 00000058 9A06          MOVB      AL,#6                 ; [CPU_ALU] |183| 
    1135              $C$DW$92        .dwtag  DW_TAG_TI_branch
    1136                      .dwattr $C$DW$92, DW_AT_low_pc(0x00)
    1137                      .dwattr $C$DW$92, DW_AT_name("SysCtl_enablePeripheral")
    1138                      .dwattr $C$DW$92, DW_AT_TI_call
    1139              
    1140 00000059 7640!         LCR       #||SysCtl_enablePeripheral|| ; [CPU_ALU] |183| 
         0000005a 0000 
    1141                      ; call occurs [#||SysCtl_enablePeripheral||] ; [] |183| 
    1142                      .dwpsn  file "../device/device.c",line 184,column 5,is_stmt,isa 0
    1143 0000005b 28A9          MOV       AL,#262               ; [CPU_ALU] |184| 
         0000005c 0106 
    1144              $C$DW$93        .dwtag  DW_TAG_TI_branch
    1145                      .dwattr $C$DW$93, DW_AT_low_pc(0x00)
    1146                      .dwattr $C$DW$93, DW_AT_name("SysCtl_enablePeripheral")
    1147                      .dwattr $C$DW$93, DW_AT_TI_call
    1148              
    1149 0000005d 7640!         LCR       #||SysCtl_enablePeripheral|| ; [CPU_ALU] |184| 
         0000005e 0000 
    1150                      ; call occurs [#||SysCtl_enablePeripheral||] ; [] |184| 
    1151                      .dwpsn  file "../device/device.c",line 186,column 5,is_stmt,isa 0
    1152 0000005f 9A07          MOVB      AL,#7                 ; [CPU_ALU] |186| 
    1153              $C$DW$94        .dwtag  DW_TAG_TI_branch
    1154                      .dwattr $C$DW$94, DW_AT_low_pc(0x00)
    1155                      .dwattr $C$DW$94, DW_AT_name("SysCtl_enablePeripheral")
    1156                      .dwattr $C$DW$94, DW_AT_TI_call
    1157              
    1158 00000060 7640!         LCR       #||SysCtl_enablePeripheral|| ; [CPU_ALU] |186| 
         00000061 0000 
    1159                      ; call occurs [#||SysCtl_enablePeripheral||] ; [] |186| 
    1160                      .dwpsn  file "../device/device.c",line 187,column 5,is_stmt,isa 0
    1161 00000062 28A9          MOV       AL,#263               ; [CPU_ALU] |187| 
         00000063 0107 
    1162              $C$DW$95        .dwtag  DW_TAG_TI_branch
    1163                      .dwattr $C$DW$95, DW_AT_low_pc(0x00)
    1164                      .dwattr $C$DW$95, DW_AT_name("SysCtl_enablePeripheral")
    1165                      .dwattr $C$DW$95, DW_AT_TI_call
    1166              
TMS320C2000 Assembler PC v22.6.1 Wed Jan 22 15:42:10 2025

Copyright (c) 1996-2018 Texas Instruments Incorporated
C:\Users\Admin\AppData\Local\Temp\{72586B83-0C91-403C-A2FF-A215999388C2} PAGE   24

    1167 00000064 7640!         LCR       #||SysCtl_enablePeripheral|| ; [CPU_ALU] |187| 
         00000065 0000 
    1168                      ; call occurs [#||SysCtl_enablePeripheral||] ; [] |187| 
    1169                      .dwpsn  file "../device/device.c",line 189,column 5,is_stmt,isa 0
    1170 00000066 9A08          MOVB      AL,#8                 ; [CPU_ALU] |189| 
    1171              $C$DW$96        .dwtag  DW_TAG_TI_branch
    1172                      .dwattr $C$DW$96, DW_AT_low_pc(0x00)
    1173                      .dwattr $C$DW$96, DW_AT_name("SysCtl_enablePeripheral")
    1174                      .dwattr $C$DW$96, DW_AT_TI_call
    1175              
    1176 00000067 7640!         LCR       #||SysCtl_enablePeripheral|| ; [CPU_ALU] |189| 
         00000068 0000 
    1177                      ; call occurs [#||SysCtl_enablePeripheral||] ; [] |189| 
    1178                      .dwpsn  file "../device/device.c",line 190,column 5,is_stmt,isa 0
    1179 00000069 28A9          MOV       AL,#264               ; [CPU_ALU] |190| 
         0000006a 0108 
    1180              $C$DW$97        .dwtag  DW_TAG_TI_branch
    1181                      .dwattr $C$DW$97, DW_AT_low_pc(0x00)
    1182                      .dwattr $C$DW$97, DW_AT_name("SysCtl_enablePeripheral")
    1183                      .dwattr $C$DW$97, DW_AT_TI_call
    1184              
    1185 0000006b 7640!         LCR       #||SysCtl_enablePeripheral|| ; [CPU_ALU] |190| 
         0000006c 0000 
    1186                      ; call occurs [#||SysCtl_enablePeripheral||] ; [] |190| 
    1187                      .dwpsn  file "../device/device.c",line 192,column 5,is_stmt,isa 0
    1188 0000006d 9A09          MOVB      AL,#9                 ; [CPU_ALU] |192| 
    1189              $C$DW$98        .dwtag  DW_TAG_TI_branch
    1190                      .dwattr $C$DW$98, DW_AT_low_pc(0x00)
    1191                      .dwattr $C$DW$98, DW_AT_name("SysCtl_enablePeripheral")
    1192                      .dwattr $C$DW$98, DW_AT_TI_call
    1193              
    1194 0000006e 7640!         LCR       #||SysCtl_enablePeripheral|| ; [CPU_ALU] |192| 
         0000006f 0000 
    1195                      ; call occurs [#||SysCtl_enablePeripheral||] ; [] |192| 
    1196                      .dwpsn  file "../device/device.c",line 193,column 5,is_stmt,isa 0
    1197 00000070 28A9          MOV       AL,#265               ; [CPU_ALU] |193| 
         00000071 0109 
    1198              $C$DW$99        .dwtag  DW_TAG_TI_branch
    1199                      .dwattr $C$DW$99, DW_AT_low_pc(0x00)
    1200                      .dwattr $C$DW$99, DW_AT_name("SysCtl_enablePeripheral")
    1201                      .dwattr $C$DW$99, DW_AT_TI_call
    1202              
    1203 00000072 7640!         LCR       #||SysCtl_enablePeripheral|| ; [CPU_ALU] |193| 
         00000073 0000 
    1204                      ; call occurs [#||SysCtl_enablePeripheral||] ; [] |193| 
    1205                      .dwpsn  file "../device/device.c",line 195,column 5,is_stmt,isa 0
    1206 00000074 9A0A          MOVB      AL,#10                ; [CPU_ALU] |195| 
    1207              $C$DW$100       .dwtag  DW_TAG_TI_branch
    1208                      .dwattr $C$DW$100, DW_AT_low_pc(0x00)
    1209                      .dwattr $C$DW$100, DW_AT_name("SysCtl_enablePeripheral")
    1210                      .dwattr $C$DW$100, DW_AT_TI_call
    1211              
    1212 00000075 7640!         LCR       #||SysCtl_enablePeripheral|| ; [CPU_ALU] |195| 
         00000076 0000 
    1213                      ; call occurs [#||SysCtl_enablePeripheral||] ; [] |195| 
TMS320C2000 Assembler PC v22.6.1 Wed Jan 22 15:42:10 2025

Copyright (c) 1996-2018 Texas Instruments Incorporated
C:\Users\Admin\AppData\Local\Temp\{72586B83-0C91-403C-A2FF-A215999388C2} PAGE   25

    1214                      .dwpsn  file "../device/device.c",line 196,column 5,is_stmt,isa 0
    1215 00000077 28A9          MOV       AL,#1034              ; [CPU_ALU] |196| 
         00000078 040A 
    1216              $C$DW$101       .dwtag  DW_TAG_TI_branch
    1217                      .dwattr $C$DW$101, DW_AT_low_pc(0x00)
    1218                      .dwattr $C$DW$101, DW_AT_name("SysCtl_enablePeripheral")
    1219                      .dwattr $C$DW$101, DW_AT_TI_call
    1220              
    1221 00000079 7640!         LCR       #||SysCtl_enablePeripheral|| ; [CPU_ALU] |196| 
         0000007a 0000 
    1222                      ; call occurs [#||SysCtl_enablePeripheral||] ; [] |196| 
    1223                      .dwpsn  file "../device/device.c",line 198,column 5,is_stmt,isa 0
    1224 0000007b 9A0D          MOVB      AL,#13                ; [CPU_ALU] |198| 
    1225              $C$DW$102       .dwtag  DW_TAG_TI_branch
    1226                      .dwattr $C$DW$102, DW_AT_low_pc(0x00)
    1227                      .dwattr $C$DW$102, DW_AT_name("SysCtl_enablePeripheral")
    1228                      .dwattr $C$DW$102, DW_AT_TI_call
    1229              
    1230 0000007c 7640!         LCR       #||SysCtl_enablePeripheral|| ; [CPU_ALU] |198| 
         0000007d 0000 
    1231                      ; call occurs [#||SysCtl_enablePeripheral||] ; [] |198| 
    1232                      .dwpsn  file "../device/device.c",line 199,column 5,is_stmt,isa 0
    1233 0000007e 28A9          MOV       AL,#269               ; [CPU_ALU] |199| 
         0000007f 010D 
    1234              $C$DW$103       .dwtag  DW_TAG_TI_branch
    1235                      .dwattr $C$DW$103, DW_AT_low_pc(0x00)
    1236                      .dwattr $C$DW$103, DW_AT_name("SysCtl_enablePeripheral")
    1237                      .dwattr $C$DW$103, DW_AT_TI_call
    1238              
    1239 00000080 7640!         LCR       #||SysCtl_enablePeripheral|| ; [CPU_ALU] |199| 
         00000081 0000 
    1240                      ; call occurs [#||SysCtl_enablePeripheral||] ; [] |199| 
    1241                      .dwpsn  file "../device/device.c",line 200,column 5,is_stmt,isa 0
    1242 00000082 28A9          MOV       AL,#525               ; [CPU_ALU] |200| 
         00000083 020D 
    1243              $C$DW$104       .dwtag  DW_TAG_TI_branch
    1244                      .dwattr $C$DW$104, DW_AT_low_pc(0x00)
    1245                      .dwattr $C$DW$104, DW_AT_name("SysCtl_enablePeripheral")
    1246                      .dwattr $C$DW$104, DW_AT_TI_call
    1247              
    1248 00000084 7640!         LCR       #||SysCtl_enablePeripheral|| ; [CPU_ALU] |200| 
         00000085 0000 
    1249                      ; call occurs [#||SysCtl_enablePeripheral||] ; [] |200| 
    1250                      .dwpsn  file "../device/device.c",line 202,column 5,is_stmt,isa 0
    1251 00000086 9A0E          MOVB      AL,#14                ; [CPU_ALU] |202| 
    1252              $C$DW$105       .dwtag  DW_TAG_TI_branch
    1253                      .dwattr $C$DW$105, DW_AT_low_pc(0x00)
    1254                      .dwattr $C$DW$105, DW_AT_name("SysCtl_enablePeripheral")
    1255                      .dwattr $C$DW$105, DW_AT_TI_call
    1256              
    1257 00000087 7640!         LCR       #||SysCtl_enablePeripheral|| ; [CPU_ALU] |202| 
         00000088 0000 
    1258                      ; call occurs [#||SysCtl_enablePeripheral||] ; [] |202| 
    1259                      .dwpsn  file "../device/device.c",line 203,column 5,is_stmt,isa 0
    1260 00000089 28A9          MOV       AL,#270               ; [CPU_ALU] |203| 
TMS320C2000 Assembler PC v22.6.1 Wed Jan 22 15:42:10 2025

Copyright (c) 1996-2018 Texas Instruments Incorporated
C:\Users\Admin\AppData\Local\Temp\{72586B83-0C91-403C-A2FF-A215999388C2} PAGE   26

         0000008a 010E 
    1261              $C$DW$106       .dwtag  DW_TAG_TI_branch
    1262                      .dwattr $C$DW$106, DW_AT_low_pc(0x00)
    1263                      .dwattr $C$DW$106, DW_AT_name("SysCtl_enablePeripheral")
    1264                      .dwattr $C$DW$106, DW_AT_TI_call
    1265              
    1266 0000008b 7640!         LCR       #||SysCtl_enablePeripheral|| ; [CPU_ALU] |203| 
         0000008c 0000 
    1267                      ; call occurs [#||SysCtl_enablePeripheral||] ; [] |203| 
    1268                      .dwpsn  file "../device/device.c",line 204,column 5,is_stmt,isa 0
    1269 0000008d 28A9          MOV       AL,#526               ; [CPU_ALU] |204| 
         0000008e 020E 
    1270              $C$DW$107       .dwtag  DW_TAG_TI_branch
    1271                      .dwattr $C$DW$107, DW_AT_low_pc(0x00)
    1272                      .dwattr $C$DW$107, DW_AT_name("SysCtl_enablePeripheral")
    1273                      .dwattr $C$DW$107, DW_AT_TI_call
    1274              
    1275 0000008f 7640!         LCR       #||SysCtl_enablePeripheral|| ; [CPU_ALU] |204| 
         00000090 0000 
    1276                      ; call occurs [#||SysCtl_enablePeripheral||] ; [] |204| 
    1277                      .dwpsn  file "../device/device.c",line 205,column 5,is_stmt,isa 0
    1278 00000091 28A9          MOV       AL,#782               ; [CPU_ALU] |205| 
         00000092 030E 
    1279              $C$DW$108       .dwtag  DW_TAG_TI_branch
    1280                      .dwattr $C$DW$108, DW_AT_low_pc(0x00)
    1281                      .dwattr $C$DW$108, DW_AT_name("SysCtl_enablePeripheral")
    1282                      .dwattr $C$DW$108, DW_AT_TI_call
    1283              
    1284 00000093 7640!         LCR       #||SysCtl_enablePeripheral|| ; [CPU_ALU] |205| 
         00000094 0000 
    1285                      ; call occurs [#||SysCtl_enablePeripheral||] ; [] |205| 
    1286                      .dwpsn  file "../device/device.c",line 207,column 5,is_stmt,isa 0
    1287 00000095 28A9          MOV       AL,#4112              ; [CPU_ALU] |207| 
         00000096 1010 
    1288              $C$DW$109       .dwtag  DW_TAG_TI_branch
    1289                      .dwattr $C$DW$109, DW_AT_low_pc(0x00)
    1290                      .dwattr $C$DW$109, DW_AT_name("SysCtl_enablePeripheral")
    1291                      .dwattr $C$DW$109, DW_AT_TI_call
    1292              
    1293 00000097 7640!         LCR       #||SysCtl_enablePeripheral|| ; [CPU_ALU] |207| 
         00000098 0000 
    1294                      ; call occurs [#||SysCtl_enablePeripheral||] ; [] |207| 
    1295                      .dwpsn  file "../device/device.c",line 208,column 5,is_stmt,isa 0
    1296 00000099 28A9          MOV       AL,#4368              ; [CPU_ALU] |208| 
         0000009a 1110 
    1297              $C$DW$110       .dwtag  DW_TAG_TI_branch
    1298                      .dwattr $C$DW$110, DW_AT_low_pc(0x00)
    1299                      .dwattr $C$DW$110, DW_AT_name("SysCtl_enablePeripheral")
    1300                      .dwattr $C$DW$110, DW_AT_TI_call
    1301              
    1302 0000009b 7640!         LCR       #||SysCtl_enablePeripheral|| ; [CPU_ALU] |208| 
         0000009c 0000 
    1303                      ; call occurs [#||SysCtl_enablePeripheral||] ; [] |208| 
    1304                      .dwpsn  file "../device/device.c",line 210,column 5,is_stmt,isa 0
    1305 0000009d 9A11          MOVB      AL,#17                ; [CPU_ALU] |210| 
TMS320C2000 Assembler PC v22.6.1 Wed Jan 22 15:42:10 2025

Copyright (c) 1996-2018 Texas Instruments Incorporated
C:\Users\Admin\AppData\Local\Temp\{72586B83-0C91-403C-A2FF-A215999388C2} PAGE   27

    1306              $C$DW$111       .dwtag  DW_TAG_TI_branch
    1307                      .dwattr $C$DW$111, DW_AT_low_pc(0x00)
    1308                      .dwattr $C$DW$111, DW_AT_name("SysCtl_enablePeripheral")
    1309                      .dwattr $C$DW$111, DW_AT_TI_call
    1310              
    1311 0000009e 7640!         LCR       #||SysCtl_enablePeripheral|| ; [CPU_ALU] |210| 
         0000009f 0000 
    1312                      ; call occurs [#||SysCtl_enablePeripheral||] ; [] |210| 
    1313                      .dwpsn  file "../device/device.c",line 211,column 5,is_stmt,isa 0
    1314 000000a0 28A9          MOV       AL,#273               ; [CPU_ALU] |211| 
         000000a1 0111 
    1315              $C$DW$112       .dwtag  DW_TAG_TI_branch
    1316                      .dwattr $C$DW$112, DW_AT_low_pc(0x00)
    1317                      .dwattr $C$DW$112, DW_AT_name("SysCtl_enablePeripheral")
    1318                      .dwattr $C$DW$112, DW_AT_TI_call
    1319              
    1320 000000a2 7640!         LCR       #||SysCtl_enablePeripheral|| ; [CPU_ALU] |211| 
         000000a3 0000 
    1321                      ; call occurs [#||SysCtl_enablePeripheral||] ; [] |211| 
    1322                      .dwpsn  file "../device/device.c",line 212,column 5,is_stmt,isa 0
    1323 000000a4 28A9          MOV       AL,#529               ; [CPU_ALU] |212| 
         000000a5 0211 
    1324              $C$DW$113       .dwtag  DW_TAG_TI_branch
    1325                      .dwattr $C$DW$113, DW_AT_low_pc(0x00)
    1326                      .dwattr $C$DW$113, DW_AT_name("SysCtl_enablePeripheral")
    1327                      .dwattr $C$DW$113, DW_AT_TI_call
    1328              
    1329 000000a6 7640!         LCR       #||SysCtl_enablePeripheral|| ; [CPU_ALU] |212| 
         000000a7 0000 
    1330                      ; call occurs [#||SysCtl_enablePeripheral||] ; [] |212| 
    1331                      .dwpsn  file "../device/device.c",line 213,column 5,is_stmt,isa 0
    1332 000000a8 28A9          MOV       AL,#785               ; [CPU_ALU] |213| 
         000000a9 0311 
    1333              $C$DW$114       .dwtag  DW_TAG_TI_branch
    1334                      .dwattr $C$DW$114, DW_AT_low_pc(0x00)
    1335                      .dwattr $C$DW$114, DW_AT_name("SysCtl_enablePeripheral")
    1336                      .dwattr $C$DW$114, DW_AT_TI_call
    1337              
    1338 000000aa 7640!         LCR       #||SysCtl_enablePeripheral|| ; [CPU_ALU] |213| 
         000000ab 0000 
    1339                      ; call occurs [#||SysCtl_enablePeripheral||] ; [] |213| 
    1340                      .dwpsn  file "../device/device.c",line 215,column 5,is_stmt,isa 0
    1341 000000ac 9A12          MOVB      AL,#18                ; [CPU_ALU] |215| 
    1342              $C$DW$115       .dwtag  DW_TAG_TI_branch
    1343                      .dwattr $C$DW$115, DW_AT_low_pc(0x00)
    1344                      .dwattr $C$DW$115, DW_AT_name("SysCtl_enablePeripheral")
    1345                      .dwattr $C$DW$115, DW_AT_TI_call
    1346              
    1347 000000ad 7640!         LCR       #||SysCtl_enablePeripheral|| ; [CPU_ALU] |215| 
         000000ae 0000 
    1348                      ; call occurs [#||SysCtl_enablePeripheral||] ; [] |215| 
    1349                      .dwpsn  file "../device/device.c",line 216,column 5,is_stmt,isa 0
    1350 000000af 28A9          MOV       AL,#274               ; [CPU_ALU] |216| 
         000000b0 0112 
    1351              $C$DW$116       .dwtag  DW_TAG_TI_branch
TMS320C2000 Assembler PC v22.6.1 Wed Jan 22 15:42:10 2025

Copyright (c) 1996-2018 Texas Instruments Incorporated
C:\Users\Admin\AppData\Local\Temp\{72586B83-0C91-403C-A2FF-A215999388C2} PAGE   28

    1352                      .dwattr $C$DW$116, DW_AT_low_pc(0x00)
    1353                      .dwattr $C$DW$116, DW_AT_name("SysCtl_enablePeripheral")
    1354                      .dwattr $C$DW$116, DW_AT_TI_call
    1355              
    1356 000000b1 7640!         LCR       #||SysCtl_enablePeripheral|| ; [CPU_ALU] |216| 
         000000b2 0000 
    1357                      ; call occurs [#||SysCtl_enablePeripheral||] ; [] |216| 
    1358                      .dwpsn  file "../device/device.c",line 218,column 5,is_stmt,isa 0
    1359 000000b3 9A13          MOVB      AL,#19                ; [CPU_ALU] |218| 
    1360              $C$DW$117       .dwtag  DW_TAG_TI_branch
    1361                      .dwattr $C$DW$117, DW_AT_low_pc(0x00)
    1362                      .dwattr $C$DW$117, DW_AT_name("SysCtl_enablePeripheral")
    1363                      .dwattr $C$DW$117, DW_AT_TI_call
    1364              
    1365 000000b4 7640!         LCR       #||SysCtl_enablePeripheral|| ; [CPU_ALU] |218| 
         000000b5 0000 
    1366                      ; call occurs [#||SysCtl_enablePeripheral||] ; [] |218| 
    1367                      .dwpsn  file "../device/device.c",line 219,column 5,is_stmt,isa 0
    1368 000000b6 28A9          MOV       AL,#275               ; [CPU_ALU] |219| 
         000000b7 0113 
    1369              $C$DW$118       .dwtag  DW_TAG_TI_branch
    1370                      .dwattr $C$DW$118, DW_AT_low_pc(0x00)
    1371                      .dwattr $C$DW$118, DW_AT_name("SysCtl_enablePeripheral")
    1372                      .dwattr $C$DW$118, DW_AT_TI_call
    1373              
    1374 000000b8 7640!         LCR       #||SysCtl_enablePeripheral|| ; [CPU_ALU] |219| 
         000000b9 0000 
    1375                      ; call occurs [#||SysCtl_enablePeripheral||] ; [] |219| 
    1376                      .dwpsn  file "../device/device.c",line 221,column 5,is_stmt,isa 0
    1377 000000ba 9A14          MOVB      AL,#20                ; [CPU_ALU] |221| 
    1378              $C$DW$119       .dwtag  DW_TAG_TI_branch
    1379                      .dwattr $C$DW$119, DW_AT_low_pc(0x00)
    1380                      .dwattr $C$DW$119, DW_AT_name("SysCtl_enablePeripheral")
    1381                      .dwattr $C$DW$119, DW_AT_TI_call
    1382              
    1383 000000bb 7640!         LCR       #||SysCtl_enablePeripheral|| ; [CPU_ALU] |221| 
         000000bc 0000 
    1384                      ; call occurs [#||SysCtl_enablePeripheral||] ; [] |221| 
    1385                      .dwpsn  file "../device/device.c",line 223,column 5,is_stmt,isa 0
    1386 000000bd 9A15          MOVB      AL,#21                ; [CPU_ALU] |223| 
    1387              $C$DW$120       .dwtag  DW_TAG_TI_branch
    1388                      .dwattr $C$DW$120, DW_AT_low_pc(0x00)
    1389                      .dwattr $C$DW$120, DW_AT_name("SysCtl_enablePeripheral")
    1390                      .dwattr $C$DW$120, DW_AT_TI_call
    1391              
    1392 000000be 7640!         LCR       #||SysCtl_enablePeripheral|| ; [CPU_ALU] |223| 
         000000bf 0000 
    1393                      ; call occurs [#||SysCtl_enablePeripheral||] ; [] |223| 
    1394                      .dwpsn  file "../device/device.c",line 224,column 5,is_stmt,isa 0
    1395 000000c0 28A9          MOV       AL,#277               ; [CPU_ALU] |224| 
         000000c1 0115 
    1396              $C$DW$121       .dwtag  DW_TAG_TI_branch
    1397                      .dwattr $C$DW$121, DW_AT_low_pc(0x00)
    1398                      .dwattr $C$DW$121, DW_AT_name("SysCtl_enablePeripheral")
    1399                      .dwattr $C$DW$121, DW_AT_TI_call
TMS320C2000 Assembler PC v22.6.1 Wed Jan 22 15:42:10 2025

Copyright (c) 1996-2018 Texas Instruments Incorporated
C:\Users\Admin\AppData\Local\Temp\{72586B83-0C91-403C-A2FF-A215999388C2} PAGE   29

    1400              
    1401 000000c2 7640!         LCR       #||SysCtl_enablePeripheral|| ; [CPU_ALU] |224| 
         000000c3 0000 
    1402                      ; call occurs [#||SysCtl_enablePeripheral||] ; [] |224| 
    1403                      .dwpsn  file "../device/device.c",line 226,column 5,is_stmt,isa 0
    1404 000000c4 9A19          MOVB      AL,#25                ; [CPU_ALU] |226| 
    1405              $C$DW$122       .dwtag  DW_TAG_TI_branch
    1406                      .dwattr $C$DW$122, DW_AT_low_pc(0x00)
    1407                      .dwattr $C$DW$122, DW_AT_name("SysCtl_enablePeripheral")
    1408                      .dwattr $C$DW$122, DW_AT_TI_call
    1409              
    1410 000000c5 7640!         LCR       #||SysCtl_enablePeripheral|| ; [CPU_ALU] |226| 
         000000c6 0000 
    1411                      ; call occurs [#||SysCtl_enablePeripheral||] ; [] |226| 
    1412                      .dwpsn  file "../device/device.c",line 227,column 5,is_stmt,isa 0
    1413 000000c7 9A1A          MOVB      AL,#26                ; [CPU_ALU] |227| 
    1414              $C$DW$123       .dwtag  DW_TAG_TI_branch
    1415                      .dwattr $C$DW$123, DW_AT_low_pc(0x00)
    1416                      .dwattr $C$DW$123, DW_AT_name("SysCtl_enablePeripheral")
    1417                      .dwattr $C$DW$123, DW_AT_TI_call
    1418              
    1419 000000c8 7640!         LCR       #||SysCtl_enablePeripheral|| ; [CPU_ALU] |227| 
         000000c9 0000 
    1420                      ; call occurs [#||SysCtl_enablePeripheral||] ; [] |227| 
    1421                      .dwpsn  file "../device/device.c",line 228,column 5,is_stmt,isa 0
    1422 000000ca 9A1B          MOVB      AL,#27                ; [CPU_ALU] |228| 
    1423              $C$DW$124       .dwtag  DW_TAG_TI_branch
    1424                      .dwattr $C$DW$124, DW_AT_low_pc(0x00)
    1425                      .dwattr $C$DW$124, DW_AT_name("SysCtl_enablePeripheral")
    1426                      .dwattr $C$DW$124, DW_AT_TI_call
    1427              
    1428 000000cb 7640!         LCR       #||SysCtl_enablePeripheral|| ; [CPU_ALU] |228| 
         000000cc 0000 
    1429                      ; call occurs [#||SysCtl_enablePeripheral||] ; [] |228| 
    1430                      .dwpsn  file "../device/device.c",line 229,column 1,is_stmt,isa 0
    1431              $C$DW$125       .dwtag  DW_TAG_TI_branch
    1432                      .dwattr $C$DW$125, DW_AT_low_pc(0x00)
    1433                      .dwattr $C$DW$125, DW_AT_TI_return
    1434              
    1435 000000cd 0006          LRETR     ; [CPU_ALU] 
    1436                      ; return occurs ; [] 
    1437                      .dwattr $C$DW$68, DW_AT_TI_end_file("../device/device.c")
    1438                      .dwattr $C$DW$68, DW_AT_TI_end_line(0xe5)
    1439                      .dwattr $C$DW$68, DW_AT_TI_end_column(0x01)
    1440                      .dwendentry
    1441                      .dwendtag $C$DW$68
    1442              
    1443 00000000               .sect   ".text:Device_initGPIO"
    1444                      .clink
    1445                      .global ||Device_initGPIO||
    1446              
    1447              $C$DW$126       .dwtag  DW_TAG_subprogram
    1448                      .dwattr $C$DW$126, DW_AT_name("Device_initGPIO")
    1449                      .dwattr $C$DW$126, DW_AT_low_pc(||Device_initGPIO||)
    1450                      .dwattr $C$DW$126, DW_AT_high_pc(0x00)
TMS320C2000 Assembler PC v22.6.1 Wed Jan 22 15:42:10 2025

Copyright (c) 1996-2018 Texas Instruments Incorporated
C:\Users\Admin\AppData\Local\Temp\{72586B83-0C91-403C-A2FF-A215999388C2} PAGE   30

    1451                      .dwattr $C$DW$126, DW_AT_linkage_name("Device_initGPIO")
    1452                      .dwattr $C$DW$126, DW_AT_external
    1453                      .dwattr $C$DW$126, DW_AT_decl_file("../device/device.c")
    1454                      .dwattr $C$DW$126, DW_AT_decl_line(0xec)
    1455                      .dwattr $C$DW$126, DW_AT_decl_column(0x06)
    1456                      .dwattr $C$DW$126, DW_AT_TI_max_frame_size(-2)
    1457                      .dwpsn  file "../device/device.c",line 237,column 1,is_stmt,address ||Device_initGPIO||,isa 0
    1458              
    1459                      .dwfde $C$DW$CIE, ||Device_initGPIO||
    1460              
    1461              ;***************************************************************
    1462              ;* FNAME: Device_initGPIO               FR SIZE:   0           *
    1463              ;*                                                             *
    1464              ;* FUNCTION ENVIRONMENT                                        *
    1465              ;*                                                             *
    1466              ;* FUNCTION PROPERTIES                                         *
    1467              ;*                            0 Parameter,  0 Auto,  0 SOE     *
    1468              ;***************************************************************
    1469              
    1470 00000000       ||Device_initGPIO||:
    1471                      .dwcfi  cfa_offset, -2
    1472                      .dwcfi  save_reg_to_mem, 26, 0
    1473                      .dwpsn  file "../device/device.c",line 241,column 5,is_stmt,isa 0
    1474 00000000 0200          MOVB      ACC,#0                ; [CPU_ALU] |241| 
    1475 00000001 D400          MOVB      XAR4,#0               ; [CPU_ALU] |241| 
    1476 00000002 1901          SUBB      ACC,#1                ; [CPU_ALU] |241| 
    1477              $C$DW$127       .dwtag  DW_TAG_TI_branch
    1478                      .dwattr $C$DW$127, DW_AT_low_pc(0x00)
    1479                      .dwattr $C$DW$127, DW_AT_name("GPIO_unlockPortConfig")
    1480                      .dwattr $C$DW$127, DW_AT_TI_call
    1481              
    1482 00000003 7640!         LCR       #||GPIO_unlockPortConfig|| ; [CPU_ALU] |241| 
         00000004 0000 
    1483                      ; call occurs [#||GPIO_unlockPortConfig||] ; [] |241| 
    1484                      .dwpsn  file "../device/device.c",line 242,column 5,is_stmt,isa 0
    1485 00000005 0200          MOVB      ACC,#0                ; [CPU_ALU] |242| 
    1486 00000006 D401          MOVB      XAR4,#1               ; [CPU_ALU] |242| 
    1487 00000007 1901          SUBB      ACC,#1                ; [CPU_ALU] |242| 
    1488              $C$DW$128       .dwtag  DW_TAG_TI_branch
    1489                      .dwattr $C$DW$128, DW_AT_low_pc(0x00)
    1490                      .dwattr $C$DW$128, DW_AT_name("GPIO_unlockPortConfig")
    1491                      .dwattr $C$DW$128, DW_AT_TI_call
    1492              
    1493 00000008 7640!         LCR       #||GPIO_unlockPortConfig|| ; [CPU_ALU] |242| 
         00000009 0000 
    1494                      ; call occurs [#||GPIO_unlockPortConfig||] ; [] |242| 
    1495                      .dwpsn  file "../device/device.c",line 243,column 5,is_stmt,isa 0
    1496 0000000a 0200          MOVB      ACC,#0                ; [CPU_ALU] |243| 
    1497 0000000b D407          MOVB      XAR4,#7               ; [CPU_ALU] |243| 
    1498 0000000c 1901          SUBB      ACC,#1                ; [CPU_ALU] |243| 
    1499              $C$DW$129       .dwtag  DW_TAG_TI_branch
    1500                      .dwattr $C$DW$129, DW_AT_low_pc(0x00)
    1501                      .dwattr $C$DW$129, DW_AT_name("GPIO_unlockPortConfig")
    1502                      .dwattr $C$DW$129, DW_AT_TI_call
    1503              
TMS320C2000 Assembler PC v22.6.1 Wed Jan 22 15:42:10 2025

Copyright (c) 1996-2018 Texas Instruments Incorporated
C:\Users\Admin\AppData\Local\Temp\{72586B83-0C91-403C-A2FF-A215999388C2} PAGE   31

    1504 0000000d 7640!         LCR       #||GPIO_unlockPortConfig|| ; [CPU_ALU] |243| 
         0000000e 0000 
    1505                      ; call occurs [#||GPIO_unlockPortConfig||] ; [] |243| 
    1506                      .dwpsn  file "../device/device.c",line 244,column 1,is_stmt,isa 0
    1507              $C$DW$130       .dwtag  DW_TAG_TI_branch
    1508                      .dwattr $C$DW$130, DW_AT_low_pc(0x00)
    1509                      .dwattr $C$DW$130, DW_AT_TI_return
    1510              
    1511 0000000f 0006          LRETR     ; [CPU_ALU] 
    1512                      ; return occurs ; [] 
    1513                      .dwattr $C$DW$126, DW_AT_TI_end_file("../device/device.c")
    1514                      .dwattr $C$DW$126, DW_AT_TI_end_line(0xf4)
    1515                      .dwattr $C$DW$126, DW_AT_TI_end_column(0x01)
    1516                      .dwendentry
    1517                      .dwendtag $C$DW$126
    1518              
    1519 00000000               .sect   ".text:Device_verifyXTAL"
    1520                      .clink
    1521                      .global ||Device_verifyXTAL||
    1522              
    1523              $C$DW$131       .dwtag  DW_TAG_subprogram
    1524                      .dwattr $C$DW$131, DW_AT_name("Device_verifyXTAL")
    1525                      .dwattr $C$DW$131, DW_AT_low_pc(||Device_verifyXTAL||)
    1526                      .dwattr $C$DW$131, DW_AT_high_pc(0x00)
    1527                      .dwattr $C$DW$131, DW_AT_linkage_name("Device_verifyXTAL")
    1528                      .dwattr $C$DW$131, DW_AT_external
    1529                      .dwattr $C$DW$131, DW_AT_type(*$C$DW$T$64)
    1530                      .dwattr $C$DW$131, DW_AT_decl_file("../device/device.c")
    1531                      .dwattr $C$DW$131, DW_AT_decl_line(0x101)
    1532                      .dwattr $C$DW$131, DW_AT_decl_column(0x06)
    1533                      .dwattr $C$DW$131, DW_AT_TI_max_frame_size(-6)
    1534                      .dwpsn  file "../device/device.c",line 258,column 1,is_stmt,address ||Device_verifyXTAL||,isa 0
    1535              
    1536                      .dwfde $C$DW$CIE, ||Device_verifyXTAL||
    1537              $C$DW$132       .dwtag  DW_TAG_formal_parameter
    1538                      .dwattr $C$DW$132, DW_AT_name("freq")
    1539                      .dwattr $C$DW$132, DW_AT_type(*$C$DW$T$16)
    1540                      .dwattr $C$DW$132, DW_AT_location[DW_OP_regx 0x2b]
    1541              
    1542              
    1543              ;***************************************************************
    1544              ;* FNAME: Device_verifyXTAL             FR SIZE:   4           *
    1545              ;*                                                             *
    1546              ;* FUNCTION ENVIRONMENT                                        *
    1547              ;*                                                             *
    1548              ;* FUNCTION PROPERTIES                                         *
    1549              ;*                            2 Parameter,  2 Auto,  0 SOE     *
    1550              ;***************************************************************
    1551              
    1552 00000000       ||Device_verifyXTAL||:
    1553                      .dwcfi  cfa_offset, -2
    1554                      .dwcfi  save_reg_to_mem, 26, 0
    1555 00000000 FE04          ADDB      SP,#4                 ; [CPU_ARAU] 
    1556                      .dwcfi  cfa_offset, -6
    1557              $C$DW$133       .dwtag  DW_TAG_variable
TMS320C2000 Assembler PC v22.6.1 Wed Jan 22 15:42:10 2025

Copyright (c) 1996-2018 Texas Instruments Incorporated
C:\Users\Admin\AppData\Local\Temp\{72586B83-0C91-403C-A2FF-A215999388C2} PAGE   32

    1558                      .dwattr $C$DW$133, DW_AT_name("freq")
    1559                      .dwattr $C$DW$133, DW_AT_type(*$C$DW$T$16)
    1560                      .dwattr $C$DW$133, DW_AT_location[DW_OP_breg20 -4]
    1561              
    1562 00000001 E203          MOV32     *-SP[4],R0H           ; [CPU_FPU] |258| 
         00000002 0044 
    1563                      .dwpsn  file "../device/device.c",line 266,column 5,is_stmt,isa 0
    1564 00000003 8F01          MOVL      XAR4,#65536           ; [CPU_ARAU] |266| 
         00000004 0000 
    1565 00000005 A8A9          MOVL      ACC,XAR4              ; [CPU_ALU] |266| 
    1566              $C$DW$134       .dwtag  DW_TAG_TI_branch
    1567                      .dwattr $C$DW$134, DW_AT_low_pc(0x00)
    1568                      .dwattr $C$DW$134, DW_AT_name("SysCtl_turnOnOsc")
    1569                      .dwattr $C$DW$134, DW_AT_TI_call
    1570              
    1571 00000006 7640!         LCR       #||SysCtl_turnOnOsc|| ; [CPU_ALU] |266| 
         00000007 0000 
    1572                      ; call occurs [#||SysCtl_turnOnOsc||] ; [] |266| 
    1573                      .dwpsn  file "../device/device.c",line 267,column 5,is_stmt,isa 0
    1574              $C$DW$135       .dwtag  DW_TAG_TI_branch
    1575                      .dwattr $C$DW$135, DW_AT_low_pc(0x00)
    1576                      .dwattr $C$DW$135, DW_AT_name("SysCtl_clearExternalOscCounterValue")
    1577                      .dwattr $C$DW$135, DW_AT_TI_call
    1578              
    1579 00000008 7640!         LCR       #||SysCtl_clearExternalOscCounterValue|| ; [CPU_ALU] |267| 
         00000009 0000 
    1580                      ; call occurs [#||SysCtl_clearExternalOscCounterValue||] ; [] |267| 
    1581                      .dwpsn  file "../device/device.c",line 268,column 11,is_stmt,isa 0
    1582              $C$DW$136       .dwtag  DW_TAG_TI_branch
    1583                      .dwattr $C$DW$136, DW_AT_low_pc(0x00)
    1584                      .dwattr $C$DW$136, DW_AT_name("SysCtl_getExternalOscCounterValue")
    1585                      .dwattr $C$DW$136, DW_AT_TI_call
    1586              
    1587 0000000a 7640!         LCR       #||SysCtl_getExternalOscCounterValue|| ; [CPU_ALU] |268| 
         0000000b 0000 
    1588                      ; call occurs [#||SysCtl_getExternalOscCounterValue||] ; [] |268| 
    1589 0000000c 88A9          MOVZ      AR6,AL                ; [CPU_ALU] |268| 
    1590 0000000d FF20          MOV       ACC,#2047             ; [CPU_ALU] |268| 
         0000000e 07FF 
    1591 0000000f 0FA6          CMPL      ACC,XAR6              ; [CPU_ALU] |268| 
    1592 00000010 6108          B         ||$C$L9||,EQ          ; [CPU_ALU] |268| 
    1593                      ; branchcc occurs ; [] |268| 
    1594              ||$C$L8||:    
    1595              $C$DW$137       .dwtag  DW_TAG_TI_branch
    1596                      .dwattr $C$DW$137, DW_AT_low_pc(0x00)
    1597                      .dwattr $C$DW$137, DW_AT_name("SysCtl_getExternalOscCounterValue")
    1598                      .dwattr $C$DW$137, DW_AT_TI_call
    1599              
    1600 00000011 7640!         LCR       #||SysCtl_getExternalOscCounterValue|| ; [CPU_ALU] |268| 
         00000012 0000 
    1601                      ; call occurs [#||SysCtl_getExternalOscCounterValue||] ; [] |268| 
    1602 00000013 88A9          MOVZ      AR6,AL                ; [CPU_ALU] |268| 
    1603 00000014 FF20          MOV       ACC,#2047             ; [CPU_ALU] |268| 
         00000015 07FF 
    1604 00000016 0FA6          CMPL      ACC,XAR6              ; [CPU_ALU] |268| 
TMS320C2000 Assembler PC v22.6.1 Wed Jan 22 15:42:10 2025

Copyright (c) 1996-2018 Texas Instruments Incorporated
C:\Users\Admin\AppData\Local\Temp\{72586B83-0C91-403C-A2FF-A215999388C2} PAGE   33

    1605 00000017 60FA          B         ||$C$L8||,NEQ         ; [CPU_ALU] |268| 
    1606                      ; branchcc occurs ; [] |268| 
    1607 00000018       ||$C$L9||:    
    1608                      .dwpsn  file "../device/device.c",line 273,column 5,is_stmt,isa 0
    1609 00000018 9A15          MOVB      AL,#21                ; [CPU_ALU] |273| 
    1610              $C$DW$138       .dwtag  DW_TAG_TI_branch
    1611                      .dwattr $C$DW$138, DW_AT_low_pc(0x00)
    1612                      .dwattr $C$DW$138, DW_AT_name("SysCtl_enablePeripheral")
    1613                      .dwattr $C$DW$138, DW_AT_TI_call
    1614              
    1615 00000019 7640!         LCR       #||SysCtl_enablePeripheral|| ; [CPU_ALU] |273| 
         0000001a 0000 
    1616                      ; call occurs [#||SysCtl_enablePeripheral||] ; [] |273| 
    1617                      .dwpsn  file "../device/device.c",line 278,column 5,is_stmt,isa 0
    1618 0000001b F605   RPT #5 || NOP
         0000001c 7700 
    1619                      .dwpsn  file "../device/device.c",line 292,column 5,is_stmt,isa 0
    1620 0000001d E802          MOVIZ     R0H,#16672            ; [CPU_FPU] |292| 
         0000001e 0900 
    1621 0000001f 7685          MOVL      XAR6,#386816          ; [CPU_ARAU] |292| 
         00000020 E700 
    1622 00000021 E203          MOV32     *-SP[2],R0H           ; [CPU_FPU] |292| 
         00000022 0042 
    1623 00000023 D500          MOVB      XAR5,#0               ; [CPU_ALU] |292| 
    1624 00000024 E801          MOVIZ     R2H,#16256            ; [CPU_FPU] |292| 
         00000025 FC02 
    1625 00000026 E802          MOVIZ     R3H,#16672            ; [CPU_FPU] |292| 
         00000027 0903 
    1626 00000028 D403          MOVB      XAR4,#3               ; [CPU_ALU] |292| 
    1627 00000029 FF69          SPM       #0                    ; [CPU_ALU] 
    1628 0000002a 06A6          MOVL      ACC,XAR6              ; [CPU_ALU] |292| 
    1629 0000002b E2AF          MOV32     R1H,*-SP[4]           ; [CPU_FPU] |292| 
         0000002c 0144 
    1630 0000002d E802          MOVIZ     R0H,#16672            ; [CPU_FPU] |292| 
         0000002e 0900 
    1631              $C$DW$139       .dwtag  DW_TAG_TI_branch
    1632                      .dwattr $C$DW$139, DW_AT_low_pc(0x00)
    1633                      .dwattr $C$DW$139, DW_AT_name("DCC_verifyClockFrequency")
    1634                      .dwattr $C$DW$139, DW_AT_TI_call
    1635              
    1636 0000002f 7640!         LCR       #||DCC_verifyClockFrequency|| ; [CPU_ALU] |292| 
         00000030 0000 
    1637                      ; call occurs [#||DCC_verifyClockFrequency||] ; [] |292| 
    1638                      .dwpsn  file "../device/device.c",line 297,column 1,is_stmt,isa 0
    1639 00000031 FE84          SUBB      SP,#4                 ; [CPU_ARAU] 
    1640                      .dwcfi  cfa_offset, -2
    1641              $C$DW$140       .dwtag  DW_TAG_TI_branch
    1642                      .dwattr $C$DW$140, DW_AT_low_pc(0x00)
    1643                      .dwattr $C$DW$140, DW_AT_TI_return
    1644              
    1645 00000032 0006          LRETR     ; [CPU_ALU] 
    1646                      ; return occurs ; [] 
    1647                      .dwattr $C$DW$131, DW_AT_TI_end_file("../device/device.c")
    1648                      .dwattr $C$DW$131, DW_AT_TI_end_line(0x129)
    1649                      .dwattr $C$DW$131, DW_AT_TI_end_column(0x01)
TMS320C2000 Assembler PC v22.6.1 Wed Jan 22 15:42:10 2025

Copyright (c) 1996-2018 Texas Instruments Incorporated
C:\Users\Admin\AppData\Local\Temp\{72586B83-0C91-403C-A2FF-A215999388C2} PAGE   34

    1650                      .dwendentry
    1651                      .dwendtag $C$DW$131
    1652              
    1653 00000000               .sect   ".text:__error__"
    1654                      .clink
    1655                      .global ||__error__||
    1656              
    1657              $C$DW$141       .dwtag  DW_TAG_subprogram
    1658                      .dwattr $C$DW$141, DW_AT_name("__error__")
    1659                      .dwattr $C$DW$141, DW_AT_low_pc(||__error__||)
    1660                      .dwattr $C$DW$141, DW_AT_high_pc(0x00)
    1661                      .dwattr $C$DW$141, DW_AT_linkage_name("__error__")
    1662                      .dwattr $C$DW$141, DW_AT_external
    1663                      .dwattr $C$DW$141, DW_AT_decl_file("../device/device.c")
    1664                      .dwattr $C$DW$141, DW_AT_decl_line(0x130)
    1665                      .dwattr $C$DW$141, DW_AT_decl_column(0x06)
    1666                      .dwattr $C$DW$141, DW_AT_TI_max_frame_size(-6)
    1667                      .dwpsn  file "../device/device.c",line 305,column 1,is_stmt,address ||__error__||,isa 0
    1668              
    1669                      .dwfde $C$DW$CIE, ||__error__||
    1670              $C$DW$142       .dwtag  DW_TAG_formal_parameter
    1671                      .dwattr $C$DW$142, DW_AT_name("filename")
    1672                      .dwattr $C$DW$142, DW_AT_type(*$C$DW$T$49)
    1673                      .dwattr $C$DW$142, DW_AT_location[DW_OP_reg12]
    1674              
    1675              $C$DW$143       .dwtag  DW_TAG_formal_parameter
    1676                      .dwattr $C$DW$143, DW_AT_name("line")
    1677                      .dwattr $C$DW$143, DW_AT_type(*$C$DW$T$38)
    1678                      .dwattr $C$DW$143, DW_AT_location[DW_OP_reg0]
    1679              
    1680              
    1681              ;***************************************************************
    1682              ;* FNAME: __error__                     FR SIZE:   4           *
    1683              ;*                                                             *
    1684              ;* FUNCTION ENVIRONMENT                                        *
    1685              ;*                                                             *
    1686              ;* FUNCTION PROPERTIES                                         *
    1687              ;*                            0 Parameter,  4 Auto,  0 SOE     *
    1688              ;***************************************************************
    1689              
    1690 00000000       ||__error__||:
    1691                      .dwcfi  cfa_offset, -2
    1692                      .dwcfi  save_reg_to_mem, 26, 0
    1693 00000000 FE04          ADDB      SP,#4                 ; [CPU_ARAU] 
    1694                      .dwcfi  cfa_offset, -6
    1695              $C$DW$144       .dwtag  DW_TAG_variable
    1696                      .dwattr $C$DW$144, DW_AT_name("filename")
    1697                      .dwattr $C$DW$144, DW_AT_type(*$C$DW$T$49)
    1698                      .dwattr $C$DW$144, DW_AT_location[DW_OP_breg20 -2]
    1699              
    1700              $C$DW$145       .dwtag  DW_TAG_variable
    1701                      .dwattr $C$DW$145, DW_AT_name("line")
    1702                      .dwattr $C$DW$145, DW_AT_type(*$C$DW$T$38)
    1703                      .dwattr $C$DW$145, DW_AT_location[DW_OP_breg20 -4]
    1704              
TMS320C2000 Assembler PC v22.6.1 Wed Jan 22 15:42:10 2025

Copyright (c) 1996-2018 Texas Instruments Incorporated
C:\Users\Admin\AppData\Local\Temp\{72586B83-0C91-403C-A2FF-A215999388C2} PAGE   35

    1705 00000001 1E44          MOVL      *-SP[4],ACC           ; [CPU_ALU] |305| 
    1706 00000002 A842          MOVL      *-SP[2],XAR4          ; [CPU_ALU] |305| 
    1707                      .dwpsn  file "../device/device.c",line 310,column 5,is_stmt,isa 0
    1708 00000003 7625   ESTOP0
    1709                      .dwpsn  file "../device/device.c",line 311,column 1,is_stmt,isa 0
    1710 00000004 FF69          SPM       #0                    ; [CPU_ALU] 
    1711 00000005 FE84          SUBB      SP,#4                 ; [CPU_ARAU] 
    1712                      .dwcfi  cfa_offset, -2
    1713              $C$DW$146       .dwtag  DW_TAG_TI_branch
    1714                      .dwattr $C$DW$146, DW_AT_low_pc(0x00)
    1715                      .dwattr $C$DW$146, DW_AT_TI_return
    1716              
    1717 00000006 0006          LRETR     ; [CPU_ALU] 
    1718                      ; return occurs ; [] 
    1719                      .dwattr $C$DW$141, DW_AT_TI_end_file("../device/device.c")
    1720                      .dwattr $C$DW$141, DW_AT_TI_end_line(0x137)
    1721                      .dwattr $C$DW$141, DW_AT_TI_end_column(0x01)
    1722                      .dwendentry
    1723                      .dwendtag $C$DW$141
    1724              
    1725              ;***************************************************************
    1726              ;* FAR STRINGS                                                 *
    1727              ;***************************************************************
    1728 00000000               .sect   ".const:.string"
    1729                      .align  2
    1730 00000000 0044  ||$C$FSL1||:    .string "D:",92,"ti",92,"c2000",92,"C2000Ware_5_04_00_00",92,"driver"
         00000001 003A 
         00000002 005C 
         00000003 0074 
         00000004 0069 
         00000005 005C 
         00000006 0063 
         00000007 0032 
         00000008 0030 
         00000009 0030 
         0000000a 0030 
         0000000b 005C 
         0000000c 0043 
         0000000d 0032 
         0000000e 0030 
         0000000f 0030 
         00000010 0030 
         00000011 0057 
         00000012 0061 
         00000013 0072 
         00000014 0065 
         00000015 005F 
         00000016 0035 
         00000017 005F 
         00000018 0030 
         00000019 0034 
         0000001a 005F 
         0000001b 0030 
         0000001c 0030 
         0000001d 005F 
TMS320C2000 Assembler PC v22.6.1 Wed Jan 22 15:42:10 2025

Copyright (c) 1996-2018 Texas Instruments Incorporated
C:\Users\Admin\AppData\Local\Temp\{72586B83-0C91-403C-A2FF-A215999388C2} PAGE   36

         0000001e 0030 
         0000001f 0030 
         00000020 005C 
         00000021 0064 
         00000022 0072 
         00000023 0069 
         00000024 0076 
         00000025 0065 
         00000026 0072 
    1731 00000027 006C          .string "lib",92,"f28003x",92,"driverlib",92,"sysctl.h",0
         00000028 0069 
         00000029 0062 
         0000002a 005C 
         0000002b 0066 
         0000002c 0032 
         0000002d 0038 
         0000002e 0030 
         0000002f 0030 
         00000030 0033 
         00000031 0078 
         00000032 005C 
         00000033 0064 
         00000034 0072 
         00000035 0069 
         00000036 0076 
         00000037 0065 
         00000038 0072 
         00000039 006C 
         0000003a 0069 
         0000003b 0062 
         0000003c 005C 
         0000003d 0073 
         0000003e 0079 
         0000003f 0073 
         00000040 0063 
         00000041 0074 
         00000042 006C 
         00000043 002E 
         00000044 0068 
         00000045 0000 
    1732                      .align  2
    1733 00000046 002E  ||$C$FSL2||:    .string "../device/device.c",0
         00000047 002E 
         00000048 002F 
         00000049 0064 
         0000004a 0065 
         0000004b 0076 
         0000004c 0069 
         0000004d 0063 
         0000004e 0065 
         0000004f 002F 
         00000050 0064 
         00000051 0065 
         00000052 0076 
         00000053 0069 
TMS320C2000 Assembler PC v22.6.1 Wed Jan 22 15:42:10 2025

Copyright (c) 1996-2018 Texas Instruments Incorporated
C:\Users\Admin\AppData\Local\Temp\{72586B83-0C91-403C-A2FF-A215999388C2} PAGE   37

         00000054 0063 
         00000055 0065 
         00000056 002E 
         00000057 0063 
         00000058 0000 
    1734              ;**************************************************************
    1735              ;* UNDEFINED EXTERNAL REFERENCES                              *
    1736              ;**************************************************************
    1737                      .global ||CMD_init||
    1738                      .global ||GPIO_setAnalogMode||
    1739                      .global ||SysCtl_setClock||
    1740                      .global ||DCC_verifyClockFrequency||
    1741                      .global ||SysCtl_getClock||
    1742                      .global ||SysCtl_getLowSpeedClock||
    1743              
    1744              ;***************************************************************
    1745              ;* BUILD ATTRIBUTES                                            *
    1746              ;***************************************************************
    1747                      .battr "c28xabi", Tag_File, 1, Tag_float_args(1)
    1748                      .battr "c28xabi", Tag_File, 1, Tag_double_args(0)
    1749                      .dwattr $C$DW$CU, DW_AT_language(DW_LANG_C)
    1750              
    1751              ;***************************************************************
    1752              ;* DWARF CIE ENTRIES                                           *
    1753              ;***************************************************************
    1754              
    1755              $C$DW$CIE       .dwcie 26
    1756                      .dwcfi  cfa_register, 20
    1757                      .dwcfi  cfa_offset, 0
    1758                      .dwcfi  same_value, 28
    1759                      .dwcfi  same_value, 6
    1760                      .dwcfi  same_value, 7
    1761                      .dwcfi  same_value, 8
    1762                      .dwcfi  same_value, 9
    1763                      .dwcfi  same_value, 10
    1764                      .dwcfi  same_value, 11
    1765                      .dwcfi  same_value, 59
    1766                      .dwcfi  same_value, 63
    1767                      .dwcfi  same_value, 67
    1768                      .dwcfi  same_value, 71
    1769                      .dwendentry
    1770                      .dwendtag $C$DW$CU
    1771              
    1772              
    1773              ;***************************************************************
    1774              ;* TYPE INFORMATION                                            *
    1775              ;***************************************************************
    1776              
    1777              $C$DW$TU$19     .dwtag  DW_TAG_type_unit
    1778                      .dwmtype  $C$DW$T$19
    1779              
    1780              $C$DW$T$19      .dwtag  DW_TAG_enumeration_type
    1781                      .dwattr $C$DW$T$19, DW_AT_byte_size(0x01)
    1782              $C$DW$147       .dwtag  DW_TAG_enumerator
    1783                      .dwattr $C$DW$147, DW_AT_name("SYSCTL_PERIPH_CLK_CLA1")
TMS320C2000 Assembler PC v22.6.1 Wed Jan 22 15:42:10 2025

Copyright (c) 1996-2018 Texas Instruments Incorporated
C:\Users\Admin\AppData\Local\Temp\{72586B83-0C91-403C-A2FF-A215999388C2} PAGE   38

    1784                      .dwattr $C$DW$147, DW_AT_const_value(0x00)
    1785                      .dwattr $C$DW$147, DW_AT_decl_file("D:\ti\c2000\C2000Ware_5_04_00_00\driverlib\f28003x\driverlib\sysc
    1786                      .dwattr $C$DW$147, DW_AT_decl_line(0x14e)
    1787                      .dwattr $C$DW$147, DW_AT_decl_column(0x05)
    1788              
    1789              $C$DW$148       .dwtag  DW_TAG_enumerator
    1790                      .dwattr $C$DW$148, DW_AT_name("SYSCTL_PERIPH_CLK_DMA")
    1791                      .dwattr $C$DW$148, DW_AT_const_value(0x200)
    1792                      .dwattr $C$DW$148, DW_AT_decl_file("D:\ti\c2000\C2000Ware_5_04_00_00\driverlib\f28003x\driverlib\sysc
    1793                      .dwattr $C$DW$148, DW_AT_decl_line(0x14f)
    1794                      .dwattr $C$DW$148, DW_AT_decl_column(0x05)
    1795              
    1796              $C$DW$149       .dwtag  DW_TAG_enumerator
    1797                      .dwattr $C$DW$149, DW_AT_name("SYSCTL_PERIPH_CLK_TIMER0")
    1798                      .dwattr $C$DW$149, DW_AT_const_value(0x300)
    1799                      .dwattr $C$DW$149, DW_AT_decl_file("D:\ti\c2000\C2000Ware_5_04_00_00\driverlib\f28003x\driverlib\sysc
    1800                      .dwattr $C$DW$149, DW_AT_decl_line(0x150)
    1801                      .dwattr $C$DW$149, DW_AT_decl_column(0x05)
    1802              
    1803              $C$DW$150       .dwtag  DW_TAG_enumerator
    1804                      .dwattr $C$DW$150, DW_AT_name("SYSCTL_PERIPH_CLK_TIMER1")
    1805                      .dwattr $C$DW$150, DW_AT_const_value(0x400)
    1806                      .dwattr $C$DW$150, DW_AT_decl_file("D:\ti\c2000\C2000Ware_5_04_00_00\driverlib\f28003x\driverlib\sysc
    1807                      .dwattr $C$DW$150, DW_AT_decl_line(0x151)
    1808                      .dwattr $C$DW$150, DW_AT_decl_column(0x05)
    1809              
    1810              $C$DW$151       .dwtag  DW_TAG_enumerator
    1811                      .dwattr $C$DW$151, DW_AT_name("SYSCTL_PERIPH_CLK_TIMER2")
    1812                      .dwattr $C$DW$151, DW_AT_const_value(0x500)
    1813                      .dwattr $C$DW$151, DW_AT_decl_file("D:\ti\c2000\C2000Ware_5_04_00_00\driverlib\f28003x\driverlib\sysc
    1814                      .dwattr $C$DW$151, DW_AT_decl_line(0x152)
    1815                      .dwattr $C$DW$151, DW_AT_decl_column(0x05)
    1816              
    1817              $C$DW$152       .dwtag  DW_TAG_enumerator
    1818                      .dwattr $C$DW$152, DW_AT_name("SYSCTL_PERIPH_CLK_CPUBGCRC")
    1819                      .dwattr $C$DW$152, DW_AT_const_value(0xd00)
    1820                      .dwattr $C$DW$152, DW_AT_decl_file("D:\ti\c2000\C2000Ware_5_04_00_00\driverlib\f28003x\driverlib\sysc
    1821                      .dwattr $C$DW$152, DW_AT_decl_line(0x153)
    1822                      .dwattr $C$DW$152, DW_AT_decl_column(0x05)
    1823              
    1824              $C$DW$153       .dwtag  DW_TAG_enumerator
    1825                      .dwattr $C$DW$153, DW_AT_name("SYSCTL_PERIPH_CLK_CLA1BGCRC")
    1826                      .dwattr $C$DW$153, DW_AT_const_value(0xe00)
    1827                      .dwattr $C$DW$153, DW_AT_decl_file("D:\ti\c2000\C2000Ware_5_04_00_00\driverlib\f28003x\driverlib\sysc
    1828                      .dwattr $C$DW$153, DW_AT_decl_line(0x154)
    1829                      .dwattr $C$DW$153, DW_AT_decl_column(0x05)
    1830              
    1831              $C$DW$154       .dwtag  DW_TAG_enumerator
    1832                      .dwattr $C$DW$154, DW_AT_name("SYSCTL_PERIPH_CLK_HRCAL")
    1833                      .dwattr $C$DW$154, DW_AT_const_value(0x1000)
    1834                      .dwattr $C$DW$154, DW_AT_decl_file("D:\ti\c2000\C2000Ware_5_04_00_00\driverlib\f28003x\driverlib\sysc
    1835                      .dwattr $C$DW$154, DW_AT_decl_line(0x155)
    1836                      .dwattr $C$DW$154, DW_AT_decl_column(0x05)
    1837              
    1838              $C$DW$155       .dwtag  DW_TAG_enumerator
TMS320C2000 Assembler PC v22.6.1 Wed Jan 22 15:42:10 2025

Copyright (c) 1996-2018 Texas Instruments Incorporated
C:\Users\Admin\AppData\Local\Temp\{72586B83-0C91-403C-A2FF-A215999388C2} PAGE   39

    1839                      .dwattr $C$DW$155, DW_AT_name("SYSCTL_PERIPH_CLK_TBCLKSYNC")
    1840                      .dwattr $C$DW$155, DW_AT_const_value(0x1200)
    1841                      .dwattr $C$DW$155, DW_AT_decl_file("D:\ti\c2000\C2000Ware_5_04_00_00\driverlib\f28003x\driverlib\sysc
    1842                      .dwattr $C$DW$155, DW_AT_decl_line(0x156)
    1843                      .dwattr $C$DW$155, DW_AT_decl_column(0x05)
    1844              
    1845              $C$DW$156       .dwtag  DW_TAG_enumerator
    1846                      .dwattr $C$DW$156, DW_AT_name("SYSCTL_PERIPH_CLK_ERAD")
    1847                      .dwattr $C$DW$156, DW_AT_const_value(0x1800)
    1848                      .dwattr $C$DW$156, DW_AT_decl_file("D:\ti\c2000\C2000Ware_5_04_00_00\driverlib\f28003x\driverlib\sysc
    1849                      .dwattr $C$DW$156, DW_AT_decl_line(0x157)
    1850                      .dwattr $C$DW$156, DW_AT_decl_column(0x05)
    1851              
    1852              $C$DW$157       .dwtag  DW_TAG_enumerator
    1853                      .dwattr $C$DW$157, DW_AT_name("SYSCTL_PERIPH_CLK_EPWM1")
    1854                      .dwattr $C$DW$157, DW_AT_const_value(0x02)
    1855                      .dwattr $C$DW$157, DW_AT_decl_file("D:\ti\c2000\C2000Ware_5_04_00_00\driverlib\f28003x\driverlib\sysc
    1856                      .dwattr $C$DW$157, DW_AT_decl_line(0x158)
    1857                      .dwattr $C$DW$157, DW_AT_decl_column(0x05)
    1858              
    1859              $C$DW$158       .dwtag  DW_TAG_enumerator
    1860                      .dwattr $C$DW$158, DW_AT_name("SYSCTL_PERIPH_CLK_EPWM2")
    1861                      .dwattr $C$DW$158, DW_AT_const_value(0x102)
    1862                      .dwattr $C$DW$158, DW_AT_decl_file("D:\ti\c2000\C2000Ware_5_04_00_00\driverlib\f28003x\driverlib\sysc
    1863                      .dwattr $C$DW$158, DW_AT_decl_line(0x159)
    1864                      .dwattr $C$DW$158, DW_AT_decl_column(0x05)
    1865              
    1866              $C$DW$159       .dwtag  DW_TAG_enumerator
    1867                      .dwattr $C$DW$159, DW_AT_name("SYSCTL_PERIPH_CLK_EPWM3")
    1868                      .dwattr $C$DW$159, DW_AT_const_value(0x202)
    1869                      .dwattr $C$DW$159, DW_AT_decl_file("D:\ti\c2000\C2000Ware_5_04_00_00\driverlib\f28003x\driverlib\sysc
    1870                      .dwattr $C$DW$159, DW_AT_decl_line(0x15a)
    1871                      .dwattr $C$DW$159, DW_AT_decl_column(0x05)
    1872              
    1873              $C$DW$160       .dwtag  DW_TAG_enumerator
    1874                      .dwattr $C$DW$160, DW_AT_name("SYSCTL_PERIPH_CLK_EPWM4")
    1875                      .dwattr $C$DW$160, DW_AT_const_value(0x302)
    1876                      .dwattr $C$DW$160, DW_AT_decl_file("D:\ti\c2000\C2000Ware_5_04_00_00\driverlib\f28003x\driverlib\sysc
    1877                      .dwattr $C$DW$160, DW_AT_decl_line(0x15b)
    1878                      .dwattr $C$DW$160, DW_AT_decl_column(0x05)
    1879              
    1880              $C$DW$161       .dwtag  DW_TAG_enumerator
    1881                      .dwattr $C$DW$161, DW_AT_name("SYSCTL_PERIPH_CLK_EPWM5")
    1882                      .dwattr $C$DW$161, DW_AT_const_value(0x402)
    1883                      .dwattr $C$DW$161, DW_AT_decl_file("D:\ti\c2000\C2000Ware_5_04_00_00\driverlib\f28003x\driverlib\sysc
    1884                      .dwattr $C$DW$161, DW_AT_decl_line(0x15c)
    1885                      .dwattr $C$DW$161, DW_AT_decl_column(0x05)
    1886              
    1887              $C$DW$162       .dwtag  DW_TAG_enumerator
    1888                      .dwattr $C$DW$162, DW_AT_name("SYSCTL_PERIPH_CLK_EPWM6")
    1889                      .dwattr $C$DW$162, DW_AT_const_value(0x502)
    1890                      .dwattr $C$DW$162, DW_AT_decl_file("D:\ti\c2000\C2000Ware_5_04_00_00\driverlib\f28003x\driverlib\sysc
    1891                      .dwattr $C$DW$162, DW_AT_decl_line(0x15d)
    1892                      .dwattr $C$DW$162, DW_AT_decl_column(0x05)
    1893              
TMS320C2000 Assembler PC v22.6.1 Wed Jan 22 15:42:10 2025

Copyright (c) 1996-2018 Texas Instruments Incorporated
C:\Users\Admin\AppData\Local\Temp\{72586B83-0C91-403C-A2FF-A215999388C2} PAGE   40

    1894              $C$DW$163       .dwtag  DW_TAG_enumerator
    1895                      .dwattr $C$DW$163, DW_AT_name("SYSCTL_PERIPH_CLK_EPWM7")
    1896                      .dwattr $C$DW$163, DW_AT_const_value(0x602)
    1897                      .dwattr $C$DW$163, DW_AT_decl_file("D:\ti\c2000\C2000Ware_5_04_00_00\driverlib\f28003x\driverlib\sysc
    1898                      .dwattr $C$DW$163, DW_AT_decl_line(0x15e)
    1899                      .dwattr $C$DW$163, DW_AT_decl_column(0x05)
    1900              
    1901              $C$DW$164       .dwtag  DW_TAG_enumerator
    1902                      .dwattr $C$DW$164, DW_AT_name("SYSCTL_PERIPH_CLK_EPWM8")
    1903                      .dwattr $C$DW$164, DW_AT_const_value(0x702)
    1904                      .dwattr $C$DW$164, DW_AT_decl_file("D:\ti\c2000\C2000Ware_5_04_00_00\driverlib\f28003x\driverlib\sysc
    1905                      .dwattr $C$DW$164, DW_AT_decl_line(0x15f)
    1906                      .dwattr $C$DW$164, DW_AT_decl_column(0x05)
    1907              
    1908              $C$DW$165       .dwtag  DW_TAG_enumerator
    1909                      .dwattr $C$DW$165, DW_AT_name("SYSCTL_PERIPH_CLK_ECAP1")
    1910                      .dwattr $C$DW$165, DW_AT_const_value(0x03)
    1911                      .dwattr $C$DW$165, DW_AT_decl_file("D:\ti\c2000\C2000Ware_5_04_00_00\driverlib\f28003x\driverlib\sysc
    1912                      .dwattr $C$DW$165, DW_AT_decl_line(0x160)
    1913                      .dwattr $C$DW$165, DW_AT_decl_column(0x05)
    1914              
    1915              $C$DW$166       .dwtag  DW_TAG_enumerator
    1916                      .dwattr $C$DW$166, DW_AT_name("SYSCTL_PERIPH_CLK_ECAP2")
    1917                      .dwattr $C$DW$166, DW_AT_const_value(0x103)
    1918                      .dwattr $C$DW$166, DW_AT_decl_file("D:\ti\c2000\C2000Ware_5_04_00_00\driverlib\f28003x\driverlib\sysc
    1919                      .dwattr $C$DW$166, DW_AT_decl_line(0x161)
    1920                      .dwattr $C$DW$166, DW_AT_decl_column(0x05)
    1921              
    1922              $C$DW$167       .dwtag  DW_TAG_enumerator
    1923                      .dwattr $C$DW$167, DW_AT_name("SYSCTL_PERIPH_CLK_ECAP3")
    1924                      .dwattr $C$DW$167, DW_AT_const_value(0x203)
    1925                      .dwattr $C$DW$167, DW_AT_decl_file("D:\ti\c2000\C2000Ware_5_04_00_00\driverlib\f28003x\driverlib\sysc
    1926                      .dwattr $C$DW$167, DW_AT_decl_line(0x162)
    1927                      .dwattr $C$DW$167, DW_AT_decl_column(0x05)
    1928              
    1929              $C$DW$168       .dwtag  DW_TAG_enumerator
    1930                      .dwattr $C$DW$168, DW_AT_name("SYSCTL_PERIPH_CLK_EQEP1")
    1931                      .dwattr $C$DW$168, DW_AT_const_value(0x04)
    1932                      .dwattr $C$DW$168, DW_AT_decl_file("D:\ti\c2000\C2000Ware_5_04_00_00\driverlib\f28003x\driverlib\sysc
    1933                      .dwattr $C$DW$168, DW_AT_decl_line(0x163)
    1934                      .dwattr $C$DW$168, DW_AT_decl_column(0x05)
    1935              
    1936              $C$DW$169       .dwtag  DW_TAG_enumerator
    1937                      .dwattr $C$DW$169, DW_AT_name("SYSCTL_PERIPH_CLK_EQEP2")
    1938                      .dwattr $C$DW$169, DW_AT_const_value(0x104)
    1939                      .dwattr $C$DW$169, DW_AT_decl_file("D:\ti\c2000\C2000Ware_5_04_00_00\driverlib\f28003x\driverlib\sysc
    1940                      .dwattr $C$DW$169, DW_AT_decl_line(0x164)
    1941                      .dwattr $C$DW$169, DW_AT_decl_column(0x05)
    1942              
    1943              $C$DW$170       .dwtag  DW_TAG_enumerator
    1944                      .dwattr $C$DW$170, DW_AT_name("SYSCTL_PERIPH_CLK_SD1")
    1945                      .dwattr $C$DW$170, DW_AT_const_value(0x06)
    1946                      .dwattr $C$DW$170, DW_AT_decl_file("D:\ti\c2000\C2000Ware_5_04_00_00\driverlib\f28003x\driverlib\sysc
    1947                      .dwattr $C$DW$170, DW_AT_decl_line(0x165)
    1948                      .dwattr $C$DW$170, DW_AT_decl_column(0x05)
TMS320C2000 Assembler PC v22.6.1 Wed Jan 22 15:42:10 2025

Copyright (c) 1996-2018 Texas Instruments Incorporated
C:\Users\Admin\AppData\Local\Temp\{72586B83-0C91-403C-A2FF-A215999388C2} PAGE   41

    1949              
    1950              $C$DW$171       .dwtag  DW_TAG_enumerator
    1951                      .dwattr $C$DW$171, DW_AT_name("SYSCTL_PERIPH_CLK_SD2")
    1952                      .dwattr $C$DW$171, DW_AT_const_value(0x106)
    1953                      .dwattr $C$DW$171, DW_AT_decl_file("D:\ti\c2000\C2000Ware_5_04_00_00\driverlib\f28003x\driverlib\sysc
    1954                      .dwattr $C$DW$171, DW_AT_decl_line(0x166)
    1955                      .dwattr $C$DW$171, DW_AT_decl_column(0x05)
    1956              
    1957              $C$DW$172       .dwtag  DW_TAG_enumerator
    1958                      .dwattr $C$DW$172, DW_AT_name("SYSCTL_PERIPH_CLK_SCIA")
    1959                      .dwattr $C$DW$172, DW_AT_const_value(0x07)
    1960                      .dwattr $C$DW$172, DW_AT_decl_file("D:\ti\c2000\C2000Ware_5_04_00_00\driverlib\f28003x\driverlib\sysc
    1961                      .dwattr $C$DW$172, DW_AT_decl_line(0x167)
    1962                      .dwattr $C$DW$172, DW_AT_decl_column(0x05)
    1963              
    1964              $C$DW$173       .dwtag  DW_TAG_enumerator
    1965                      .dwattr $C$DW$173, DW_AT_name("SYSCTL_PERIPH_CLK_SCIB")
    1966                      .dwattr $C$DW$173, DW_AT_const_value(0x107)
    1967                      .dwattr $C$DW$173, DW_AT_decl_file("D:\ti\c2000\C2000Ware_5_04_00_00\driverlib\f28003x\driverlib\sysc
    1968                      .dwattr $C$DW$173, DW_AT_decl_line(0x168)
    1969                      .dwattr $C$DW$173, DW_AT_decl_column(0x05)
    1970              
    1971              $C$DW$174       .dwtag  DW_TAG_enumerator
    1972                      .dwattr $C$DW$174, DW_AT_name("SYSCTL_PERIPH_CLK_SPIA")
    1973                      .dwattr $C$DW$174, DW_AT_const_value(0x08)
    1974                      .dwattr $C$DW$174, DW_AT_decl_file("D:\ti\c2000\C2000Ware_5_04_00_00\driverlib\f28003x\driverlib\sysc
    1975                      .dwattr $C$DW$174, DW_AT_decl_line(0x169)
    1976                      .dwattr $C$DW$174, DW_AT_decl_column(0x05)
    1977              
    1978              $C$DW$175       .dwtag  DW_TAG_enumerator
    1979                      .dwattr $C$DW$175, DW_AT_name("SYSCTL_PERIPH_CLK_SPIB")
    1980                      .dwattr $C$DW$175, DW_AT_const_value(0x108)
    1981                      .dwattr $C$DW$175, DW_AT_decl_file("D:\ti\c2000\C2000Ware_5_04_00_00\driverlib\f28003x\driverlib\sysc
    1982                      .dwattr $C$DW$175, DW_AT_decl_line(0x16a)
    1983                      .dwattr $C$DW$175, DW_AT_decl_column(0x05)
    1984              
    1985              $C$DW$176       .dwtag  DW_TAG_enumerator
    1986                      .dwattr $C$DW$176, DW_AT_name("SYSCTL_PERIPH_CLK_I2CA")
    1987                      .dwattr $C$DW$176, DW_AT_const_value(0x09)
    1988                      .dwattr $C$DW$176, DW_AT_decl_file("D:\ti\c2000\C2000Ware_5_04_00_00\driverlib\f28003x\driverlib\sysc
    1989                      .dwattr $C$DW$176, DW_AT_decl_line(0x16b)
    1990                      .dwattr $C$DW$176, DW_AT_decl_column(0x05)
    1991              
    1992              $C$DW$177       .dwtag  DW_TAG_enumerator
    1993                      .dwattr $C$DW$177, DW_AT_name("SYSCTL_PERIPH_CLK_I2CB")
    1994                      .dwattr $C$DW$177, DW_AT_const_value(0x109)
    1995                      .dwattr $C$DW$177, DW_AT_decl_file("D:\ti\c2000\C2000Ware_5_04_00_00\driverlib\f28003x\driverlib\sysc
    1996                      .dwattr $C$DW$177, DW_AT_decl_line(0x16c)
    1997                      .dwattr $C$DW$177, DW_AT_decl_column(0x05)
    1998              
    1999              $C$DW$178       .dwtag  DW_TAG_enumerator
    2000                      .dwattr $C$DW$178, DW_AT_name("SYSCTL_PERIPH_CLK_CANA")
    2001                      .dwattr $C$DW$178, DW_AT_const_value(0x0a)
    2002                      .dwattr $C$DW$178, DW_AT_decl_file("D:\ti\c2000\C2000Ware_5_04_00_00\driverlib\f28003x\driverlib\sysc
    2003                      .dwattr $C$DW$178, DW_AT_decl_line(0x16d)
TMS320C2000 Assembler PC v22.6.1 Wed Jan 22 15:42:10 2025

Copyright (c) 1996-2018 Texas Instruments Incorporated
C:\Users\Admin\AppData\Local\Temp\{72586B83-0C91-403C-A2FF-A215999388C2} PAGE   42

    2004                      .dwattr $C$DW$178, DW_AT_decl_column(0x05)
    2005              
    2006              $C$DW$179       .dwtag  DW_TAG_enumerator
    2007                      .dwattr $C$DW$179, DW_AT_name("SYSCTL_PERIPH_CLK_MCANA")
    2008                      .dwattr $C$DW$179, DW_AT_const_value(0x40a)
    2009                      .dwattr $C$DW$179, DW_AT_decl_file("D:\ti\c2000\C2000Ware_5_04_00_00\driverlib\f28003x\driverlib\sysc
    2010                      .dwattr $C$DW$179, DW_AT_decl_line(0x16e)
    2011                      .dwattr $C$DW$179, DW_AT_decl_column(0x05)
    2012              
    2013              $C$DW$180       .dwtag  DW_TAG_enumerator
    2014                      .dwattr $C$DW$180, DW_AT_name("SYSCTL_PERIPH_CLK_ADCA")
    2015                      .dwattr $C$DW$180, DW_AT_const_value(0x0d)
    2016                      .dwattr $C$DW$180, DW_AT_decl_file("D:\ti\c2000\C2000Ware_5_04_00_00\driverlib\f28003x\driverlib\sysc
    2017                      .dwattr $C$DW$180, DW_AT_decl_line(0x16f)
    2018                      .dwattr $C$DW$180, DW_AT_decl_column(0x05)
    2019              
    2020              $C$DW$181       .dwtag  DW_TAG_enumerator
    2021                      .dwattr $C$DW$181, DW_AT_name("SYSCTL_PERIPH_CLK_ADCB")
    2022                      .dwattr $C$DW$181, DW_AT_const_value(0x10d)
    2023                      .dwattr $C$DW$181, DW_AT_decl_file("D:\ti\c2000\C2000Ware_5_04_00_00\driverlib\f28003x\driverlib\sysc
    2024                      .dwattr $C$DW$181, DW_AT_decl_line(0x170)
    2025                      .dwattr $C$DW$181, DW_AT_decl_column(0x05)
    2026              
    2027              $C$DW$182       .dwtag  DW_TAG_enumerator
    2028                      .dwattr $C$DW$182, DW_AT_name("SYSCTL_PERIPH_CLK_ADCC")
    2029                      .dwattr $C$DW$182, DW_AT_const_value(0x20d)
    2030                      .dwattr $C$DW$182, DW_AT_decl_file("D:\ti\c2000\C2000Ware_5_04_00_00\driverlib\f28003x\driverlib\sysc
    2031                      .dwattr $C$DW$182, DW_AT_decl_line(0x171)
    2032                      .dwattr $C$DW$182, DW_AT_decl_column(0x05)
    2033              
    2034              $C$DW$183       .dwtag  DW_TAG_enumerator
    2035                      .dwattr $C$DW$183, DW_AT_name("SYSCTL_PERIPH_CLK_CMPSS1")
    2036                      .dwattr $C$DW$183, DW_AT_const_value(0x0e)
    2037                      .dwattr $C$DW$183, DW_AT_decl_file("D:\ti\c2000\C2000Ware_5_04_00_00\driverlib\f28003x\driverlib\sysc
    2038                      .dwattr $C$DW$183, DW_AT_decl_line(0x172)
    2039                      .dwattr $C$DW$183, DW_AT_decl_column(0x05)
    2040              
    2041              $C$DW$184       .dwtag  DW_TAG_enumerator
    2042                      .dwattr $C$DW$184, DW_AT_name("SYSCTL_PERIPH_CLK_CMPSS2")
    2043                      .dwattr $C$DW$184, DW_AT_const_value(0x10e)
    2044                      .dwattr $C$DW$184, DW_AT_decl_file("D:\ti\c2000\C2000Ware_5_04_00_00\driverlib\f28003x\driverlib\sysc
    2045                      .dwattr $C$DW$184, DW_AT_decl_line(0x173)
    2046                      .dwattr $C$DW$184, DW_AT_decl_column(0x05)
    2047              
    2048              $C$DW$185       .dwtag  DW_TAG_enumerator
    2049                      .dwattr $C$DW$185, DW_AT_name("SYSCTL_PERIPH_CLK_CMPSS3")
    2050                      .dwattr $C$DW$185, DW_AT_const_value(0x20e)
    2051                      .dwattr $C$DW$185, DW_AT_decl_file("D:\ti\c2000\C2000Ware_5_04_00_00\driverlib\f28003x\driverlib\sysc
    2052                      .dwattr $C$DW$185, DW_AT_decl_line(0x174)
    2053                      .dwattr $C$DW$185, DW_AT_decl_column(0x05)
    2054              
    2055              $C$DW$186       .dwtag  DW_TAG_enumerator
    2056                      .dwattr $C$DW$186, DW_AT_name("SYSCTL_PERIPH_CLK_CMPSS4")
    2057                      .dwattr $C$DW$186, DW_AT_const_value(0x30e)
    2058                      .dwattr $C$DW$186, DW_AT_decl_file("D:\ti\c2000\C2000Ware_5_04_00_00\driverlib\f28003x\driverlib\sysc
TMS320C2000 Assembler PC v22.6.1 Wed Jan 22 15:42:10 2025

Copyright (c) 1996-2018 Texas Instruments Incorporated
C:\Users\Admin\AppData\Local\Temp\{72586B83-0C91-403C-A2FF-A215999388C2} PAGE   43

    2059                      .dwattr $C$DW$186, DW_AT_decl_line(0x175)
    2060                      .dwattr $C$DW$186, DW_AT_decl_column(0x05)
    2061              
    2062              $C$DW$187       .dwtag  DW_TAG_enumerator
    2063                      .dwattr $C$DW$187, DW_AT_name("SYSCTL_PERIPH_CLK_DACA")
    2064                      .dwattr $C$DW$187, DW_AT_const_value(0x1010)
    2065                      .dwattr $C$DW$187, DW_AT_decl_file("D:\ti\c2000\C2000Ware_5_04_00_00\driverlib\f28003x\driverlib\sysc
    2066                      .dwattr $C$DW$187, DW_AT_decl_line(0x176)
    2067                      .dwattr $C$DW$187, DW_AT_decl_column(0x05)
    2068              
    2069              $C$DW$188       .dwtag  DW_TAG_enumerator
    2070                      .dwattr $C$DW$188, DW_AT_name("SYSCTL_PERIPH_CLK_DACB")
    2071                      .dwattr $C$DW$188, DW_AT_const_value(0x1110)
    2072                      .dwattr $C$DW$188, DW_AT_decl_file("D:\ti\c2000\C2000Ware_5_04_00_00\driverlib\f28003x\driverlib\sysc
    2073                      .dwattr $C$DW$188, DW_AT_decl_line(0x177)
    2074                      .dwattr $C$DW$188, DW_AT_decl_column(0x05)
    2075              
    2076              $C$DW$189       .dwtag  DW_TAG_enumerator
    2077                      .dwattr $C$DW$189, DW_AT_name("SYSCTL_PERIPH_CLK_CLB1")
    2078                      .dwattr $C$DW$189, DW_AT_const_value(0x11)
    2079                      .dwattr $C$DW$189, DW_AT_decl_file("D:\ti\c2000\C2000Ware_5_04_00_00\driverlib\f28003x\driverlib\sysc
    2080                      .dwattr $C$DW$189, DW_AT_decl_line(0x178)
    2081                      .dwattr $C$DW$189, DW_AT_decl_column(0x05)
    2082              
    2083              $C$DW$190       .dwtag  DW_TAG_enumerator
    2084                      .dwattr $C$DW$190, DW_AT_name("SYSCTL_PERIPH_CLK_CLB2")
    2085                      .dwattr $C$DW$190, DW_AT_const_value(0x111)
    2086                      .dwattr $C$DW$190, DW_AT_decl_file("D:\ti\c2000\C2000Ware_5_04_00_00\driverlib\f28003x\driverlib\sysc
    2087                      .dwattr $C$DW$190, DW_AT_decl_line(0x179)
    2088                      .dwattr $C$DW$190, DW_AT_decl_column(0x05)
    2089              
    2090              $C$DW$191       .dwtag  DW_TAG_enumerator
    2091                      .dwattr $C$DW$191, DW_AT_name("SYSCTL_PERIPH_CLK_CLB3")
    2092                      .dwattr $C$DW$191, DW_AT_const_value(0x211)
    2093                      .dwattr $C$DW$191, DW_AT_decl_file("D:\ti\c2000\C2000Ware_5_04_00_00\driverlib\f28003x\driverlib\sysc
    2094                      .dwattr $C$DW$191, DW_AT_decl_line(0x17a)
    2095                      .dwattr $C$DW$191, DW_AT_decl_column(0x05)
    2096              
    2097              $C$DW$192       .dwtag  DW_TAG_enumerator
    2098                      .dwattr $C$DW$192, DW_AT_name("SYSCTL_PERIPH_CLK_CLB4")
    2099                      .dwattr $C$DW$192, DW_AT_const_value(0x311)
    2100                      .dwattr $C$DW$192, DW_AT_decl_file("D:\ti\c2000\C2000Ware_5_04_00_00\driverlib\f28003x\driverlib\sysc
    2101                      .dwattr $C$DW$192, DW_AT_decl_line(0x17b)
    2102                      .dwattr $C$DW$192, DW_AT_decl_column(0x05)
    2103              
    2104              $C$DW$193       .dwtag  DW_TAG_enumerator
    2105                      .dwattr $C$DW$193, DW_AT_name("SYSCTL_PERIPH_CLK_FSITXA")
    2106                      .dwattr $C$DW$193, DW_AT_const_value(0x12)
    2107                      .dwattr $C$DW$193, DW_AT_decl_file("D:\ti\c2000\C2000Ware_5_04_00_00\driverlib\f28003x\driverlib\sysc
    2108                      .dwattr $C$DW$193, DW_AT_decl_line(0x17c)
    2109                      .dwattr $C$DW$193, DW_AT_decl_column(0x05)
    2110              
    2111              $C$DW$194       .dwtag  DW_TAG_enumerator
    2112                      .dwattr $C$DW$194, DW_AT_name("SYSCTL_PERIPH_CLK_FSIRXA")
    2113                      .dwattr $C$DW$194, DW_AT_const_value(0x112)
TMS320C2000 Assembler PC v22.6.1 Wed Jan 22 15:42:10 2025

Copyright (c) 1996-2018 Texas Instruments Incorporated
C:\Users\Admin\AppData\Local\Temp\{72586B83-0C91-403C-A2FF-A215999388C2} PAGE   44

    2114                      .dwattr $C$DW$194, DW_AT_decl_file("D:\ti\c2000\C2000Ware_5_04_00_00\driverlib\f28003x\driverlib\sysc
    2115                      .dwattr $C$DW$194, DW_AT_decl_line(0x17d)
    2116                      .dwattr $C$DW$194, DW_AT_decl_column(0x05)
    2117              
    2118              $C$DW$195       .dwtag  DW_TAG_enumerator
    2119                      .dwattr $C$DW$195, DW_AT_name("SYSCTL_PERIPH_CLK_LINA")
    2120                      .dwattr $C$DW$195, DW_AT_const_value(0x13)
    2121                      .dwattr $C$DW$195, DW_AT_decl_file("D:\ti\c2000\C2000Ware_5_04_00_00\driverlib\f28003x\driverlib\sysc
    2122                      .dwattr $C$DW$195, DW_AT_decl_line(0x17e)
    2123                      .dwattr $C$DW$195, DW_AT_decl_column(0x05)
    2124              
    2125              $C$DW$196       .dwtag  DW_TAG_enumerator
    2126                      .dwattr $C$DW$196, DW_AT_name("SYSCTL_PERIPH_CLK_LINB")
    2127                      .dwattr $C$DW$196, DW_AT_const_value(0x113)
    2128                      .dwattr $C$DW$196, DW_AT_decl_file("D:\ti\c2000\C2000Ware_5_04_00_00\driverlib\f28003x\driverlib\sysc
    2129                      .dwattr $C$DW$196, DW_AT_decl_line(0x17f)
    2130                      .dwattr $C$DW$196, DW_AT_decl_column(0x05)
    2131              
    2132              $C$DW$197       .dwtag  DW_TAG_enumerator
    2133                      .dwattr $C$DW$197, DW_AT_name("SYSCTL_PERIPH_CLK_PMBUSA")
    2134                      .dwattr $C$DW$197, DW_AT_const_value(0x14)
    2135                      .dwattr $C$DW$197, DW_AT_decl_file("D:\ti\c2000\C2000Ware_5_04_00_00\driverlib\f28003x\driverlib\sysc
    2136                      .dwattr $C$DW$197, DW_AT_decl_line(0x180)
    2137                      .dwattr $C$DW$197, DW_AT_decl_column(0x05)
    2138              
    2139              $C$DW$198       .dwtag  DW_TAG_enumerator
    2140                      .dwattr $C$DW$198, DW_AT_name("SYSCTL_PERIPH_CLK_DCC0")
    2141                      .dwattr $C$DW$198, DW_AT_const_value(0x15)
    2142                      .dwattr $C$DW$198, DW_AT_decl_file("D:\ti\c2000\C2000Ware_5_04_00_00\driverlib\f28003x\driverlib\sysc
    2143                      .dwattr $C$DW$198, DW_AT_decl_line(0x181)
    2144                      .dwattr $C$DW$198, DW_AT_decl_column(0x05)
    2145              
    2146              $C$DW$199       .dwtag  DW_TAG_enumerator
    2147                      .dwattr $C$DW$199, DW_AT_name("SYSCTL_PERIPH_CLK_DCC1")
    2148                      .dwattr $C$DW$199, DW_AT_const_value(0x115)
    2149                      .dwattr $C$DW$199, DW_AT_decl_file("D:\ti\c2000\C2000Ware_5_04_00_00\driverlib\f28003x\driverlib\sysc
    2150                      .dwattr $C$DW$199, DW_AT_decl_line(0x182)
    2151                      .dwattr $C$DW$199, DW_AT_decl_column(0x05)
    2152              
    2153              $C$DW$200       .dwtag  DW_TAG_enumerator
    2154                      .dwattr $C$DW$200, DW_AT_name("SYSCTL_PERIPH_CLK_HICA")
    2155                      .dwattr $C$DW$200, DW_AT_const_value(0x19)
    2156                      .dwattr $C$DW$200, DW_AT_decl_file("D:\ti\c2000\C2000Ware_5_04_00_00\driverlib\f28003x\driverlib\sysc
    2157                      .dwattr $C$DW$200, DW_AT_decl_line(0x183)
    2158                      .dwattr $C$DW$200, DW_AT_decl_column(0x05)
    2159              
    2160              $C$DW$201       .dwtag  DW_TAG_enumerator
    2161                      .dwattr $C$DW$201, DW_AT_name("SYSCTL_PERIPH_CLK_AESA")
    2162                      .dwattr $C$DW$201, DW_AT_const_value(0x1a)
    2163                      .dwattr $C$DW$201, DW_AT_decl_file("D:\ti\c2000\C2000Ware_5_04_00_00\driverlib\f28003x\driverlib\sysc
    2164                      .dwattr $C$DW$201, DW_AT_decl_line(0x184)
    2165                      .dwattr $C$DW$201, DW_AT_decl_column(0x05)
    2166              
    2167              $C$DW$202       .dwtag  DW_TAG_enumerator
    2168                      .dwattr $C$DW$202, DW_AT_name("SYSCTL_PERIPH_CLK_EPG1")
TMS320C2000 Assembler PC v22.6.1 Wed Jan 22 15:42:10 2025

Copyright (c) 1996-2018 Texas Instruments Incorporated
C:\Users\Admin\AppData\Local\Temp\{72586B83-0C91-403C-A2FF-A215999388C2} PAGE   45

    2169                      .dwattr $C$DW$202, DW_AT_const_value(0x1b)
    2170                      .dwattr $C$DW$202, DW_AT_decl_file("D:\ti\c2000\C2000Ware_5_04_00_00\driverlib\f28003x\driverlib\sysc
    2171                      .dwattr $C$DW$202, DW_AT_decl_line(0x185)
    2172                      .dwattr $C$DW$202, DW_AT_decl_column(0x05)
    2173              
    2174                      .dwattr $C$DW$T$19, DW_AT_decl_file("D:\ti\c2000\C2000Ware_5_04_00_00\driverlib\f28003x\driverlib\sys
    2175                      .dwattr $C$DW$T$19, DW_AT_decl_line(0x14d)
    2176                      .dwattr $C$DW$T$19, DW_AT_decl_column(0x01)
    2177                      .dwendtag $C$DW$T$19
    2178              
    2179                      .dwendtag $C$DW$TU$19
    2180              
    2181              
    2182              $C$DW$TU$20     .dwtag  DW_TAG_type_unit
    2183                      .dwmtype  $C$DW$T$20
    2184              $C$DW$T$20      .dwtag  DW_TAG_typedef
    2185                      .dwattr $C$DW$T$20, DW_AT_name("SysCtl_PeripheralPCLOCKCR")
    2186                      .dwattr $C$DW$T$20, DW_AT_type(*$C$DW$T$19)
    2187                      .dwattr $C$DW$T$20, DW_AT_decl_file("D:\ti\c2000\C2000Ware_5_04_00_00\driverlib\f28003x\driverlib\sys
    2188                      .dwattr $C$DW$T$20, DW_AT_decl_line(0x186)
    2189                      .dwattr $C$DW$T$20, DW_AT_decl_column(0x03)
    2190              
    2191                      .dwendtag $C$DW$TU$20
    2192              
    2193              
    2194              $C$DW$TU$21     .dwtag  DW_TAG_type_unit
    2195                      .dwmtype  $C$DW$T$21
    2196              
    2197              $C$DW$T$21      .dwtag  DW_TAG_enumeration_type
    2198                      .dwattr $C$DW$T$21, DW_AT_byte_size(0x01)
    2199              $C$DW$203       .dwtag  DW_TAG_enumerator
    2200                      .dwattr $C$DW$203, DW_AT_name("SYSCTL_LSPCLK_PRESCALE_1")
    2201                      .dwattr $C$DW$203, DW_AT_const_value(0x00)
    2202                      .dwattr $C$DW$203, DW_AT_decl_file("D:\ti\c2000\C2000Ware_5_04_00_00\driverlib\f28003x\driverlib\sysc
    2203                      .dwattr $C$DW$203, DW_AT_decl_line(0x201)
    2204                      .dwattr $C$DW$203, DW_AT_decl_column(0x05)
    2205              
    2206              $C$DW$204       .dwtag  DW_TAG_enumerator
    2207                      .dwattr $C$DW$204, DW_AT_name("SYSCTL_LSPCLK_PRESCALE_2")
    2208                      .dwattr $C$DW$204, DW_AT_const_value(0x01)
    2209                      .dwattr $C$DW$204, DW_AT_decl_file("D:\ti\c2000\C2000Ware_5_04_00_00\driverlib\f28003x\driverlib\sysc
    2210                      .dwattr $C$DW$204, DW_AT_decl_line(0x202)
    2211                      .dwattr $C$DW$204, DW_AT_decl_column(0x05)
    2212              
    2213              $C$DW$205       .dwtag  DW_TAG_enumerator
    2214                      .dwattr $C$DW$205, DW_AT_name("SYSCTL_LSPCLK_PRESCALE_4")
    2215                      .dwattr $C$DW$205, DW_AT_const_value(0x02)
    2216                      .dwattr $C$DW$205, DW_AT_decl_file("D:\ti\c2000\C2000Ware_5_04_00_00\driverlib\f28003x\driverlib\sysc
    2217                      .dwattr $C$DW$205, DW_AT_decl_line(0x203)
    2218                      .dwattr $C$DW$205, DW_AT_decl_column(0x05)
    2219              
    2220              $C$DW$206       .dwtag  DW_TAG_enumerator
    2221                      .dwattr $C$DW$206, DW_AT_name("SYSCTL_LSPCLK_PRESCALE_6")
    2222                      .dwattr $C$DW$206, DW_AT_const_value(0x03)
    2223                      .dwattr $C$DW$206, DW_AT_decl_file("D:\ti\c2000\C2000Ware_5_04_00_00\driverlib\f28003x\driverlib\sysc
TMS320C2000 Assembler PC v22.6.1 Wed Jan 22 15:42:10 2025

Copyright (c) 1996-2018 Texas Instruments Incorporated
C:\Users\Admin\AppData\Local\Temp\{72586B83-0C91-403C-A2FF-A215999388C2} PAGE   46

    2224                      .dwattr $C$DW$206, DW_AT_decl_line(0x204)
    2225                      .dwattr $C$DW$206, DW_AT_decl_column(0x05)
    2226              
    2227              $C$DW$207       .dwtag  DW_TAG_enumerator
    2228                      .dwattr $C$DW$207, DW_AT_name("SYSCTL_LSPCLK_PRESCALE_8")
    2229                      .dwattr $C$DW$207, DW_AT_const_value(0x04)
    2230                      .dwattr $C$DW$207, DW_AT_decl_file("D:\ti\c2000\C2000Ware_5_04_00_00\driverlib\f28003x\driverlib\sysc
    2231                      .dwattr $C$DW$207, DW_AT_decl_line(0x205)
    2232                      .dwattr $C$DW$207, DW_AT_decl_column(0x05)
    2233              
    2234              $C$DW$208       .dwtag  DW_TAG_enumerator
    2235                      .dwattr $C$DW$208, DW_AT_name("SYSCTL_LSPCLK_PRESCALE_10")
    2236                      .dwattr $C$DW$208, DW_AT_const_value(0x05)
    2237                      .dwattr $C$DW$208, DW_AT_decl_file("D:\ti\c2000\C2000Ware_5_04_00_00\driverlib\f28003x\driverlib\sysc
    2238                      .dwattr $C$DW$208, DW_AT_decl_line(0x206)
    2239                      .dwattr $C$DW$208, DW_AT_decl_column(0x05)
    2240              
    2241              $C$DW$209       .dwtag  DW_TAG_enumerator
    2242                      .dwattr $C$DW$209, DW_AT_name("SYSCTL_LSPCLK_PRESCALE_12")
    2243                      .dwattr $C$DW$209, DW_AT_const_value(0x06)
    2244                      .dwattr $C$DW$209, DW_AT_decl_file("D:\ti\c2000\C2000Ware_5_04_00_00\driverlib\f28003x\driverlib\sysc
    2245                      .dwattr $C$DW$209, DW_AT_decl_line(0x207)
    2246                      .dwattr $C$DW$209, DW_AT_decl_column(0x05)
    2247              
    2248              $C$DW$210       .dwtag  DW_TAG_enumerator
    2249                      .dwattr $C$DW$210, DW_AT_name("SYSCTL_LSPCLK_PRESCALE_14")
    2250                      .dwattr $C$DW$210, DW_AT_const_value(0x07)
    2251                      .dwattr $C$DW$210, DW_AT_decl_file("D:\ti\c2000\C2000Ware_5_04_00_00\driverlib\f28003x\driverlib\sysc
    2252                      .dwattr $C$DW$210, DW_AT_decl_line(0x208)
    2253                      .dwattr $C$DW$210, DW_AT_decl_column(0x05)
    2254              
    2255                      .dwattr $C$DW$T$21, DW_AT_decl_file("D:\ti\c2000\C2000Ware_5_04_00_00\driverlib\f28003x\driverlib\sys
    2256                      .dwattr $C$DW$T$21, DW_AT_decl_line(0x200)
    2257                      .dwattr $C$DW$T$21, DW_AT_decl_column(0x01)
    2258                      .dwendtag $C$DW$T$21
    2259              
    2260                      .dwendtag $C$DW$TU$21
    2261              
    2262              
    2263              $C$DW$TU$22     .dwtag  DW_TAG_type_unit
    2264                      .dwmtype  $C$DW$T$22
    2265              $C$DW$T$22      .dwtag  DW_TAG_typedef
    2266                      .dwattr $C$DW$T$22, DW_AT_name("SysCtl_LSPCLKPrescaler")
    2267                      .dwattr $C$DW$T$22, DW_AT_type(*$C$DW$T$21)
    2268                      .dwattr $C$DW$T$22, DW_AT_decl_file("D:\ti\c2000\C2000Ware_5_04_00_00\driverlib\f28003x\driverlib\sys
    2269                      .dwattr $C$DW$T$22, DW_AT_decl_line(0x209)
    2270                      .dwattr $C$DW$T$22, DW_AT_decl_column(0x03)
    2271              
    2272                      .dwendtag $C$DW$TU$22
    2273              
    2274              
    2275              $C$DW$TU$23     .dwtag  DW_TAG_type_unit
    2276                      .dwmtype  $C$DW$T$23
    2277              
    2278              $C$DW$T$23      .dwtag  DW_TAG_enumeration_type
TMS320C2000 Assembler PC v22.6.1 Wed Jan 22 15:42:10 2025

Copyright (c) 1996-2018 Texas Instruments Incorporated
C:\Users\Admin\AppData\Local\Temp\{72586B83-0C91-403C-A2FF-A215999388C2} PAGE   47

    2279                      .dwattr $C$DW$T$23, DW_AT_byte_size(0x01)
    2280              $C$DW$211       .dwtag  DW_TAG_enumerator
    2281                      .dwattr $C$DW$211, DW_AT_name("DCC_COUNT1SRC_PLL")
    2282                      .dwattr $C$DW$211, DW_AT_const_value(0x00)
    2283                      .dwattr $C$DW$211, DW_AT_decl_file("D:/ti/c2000/C2000Ware_5_04_00_00/driverlib/f28003x/driverlib/dcc.
    2284                      .dwattr $C$DW$211, DW_AT_decl_line(0x88)
    2285                      .dwattr $C$DW$211, DW_AT_decl_column(0x05)
    2286              
    2287              $C$DW$212       .dwtag  DW_TAG_enumerator
    2288                      .dwattr $C$DW$212, DW_AT_name("DCC_COUNT1SRC_INTOSC1")
    2289                      .dwattr $C$DW$212, DW_AT_const_value(0x02)
    2290                      .dwattr $C$DW$212, DW_AT_decl_file("D:/ti/c2000/C2000Ware_5_04_00_00/driverlib/f28003x/driverlib/dcc.
    2291                      .dwattr $C$DW$212, DW_AT_decl_line(0x89)
    2292                      .dwattr $C$DW$212, DW_AT_decl_column(0x05)
    2293              
    2294              $C$DW$213       .dwtag  DW_TAG_enumerator
    2295                      .dwattr $C$DW$213, DW_AT_name("DCC_COUNT1SRC_INTOSC2")
    2296                      .dwattr $C$DW$213, DW_AT_const_value(0x03)
    2297                      .dwattr $C$DW$213, DW_AT_decl_file("D:/ti/c2000/C2000Ware_5_04_00_00/driverlib/f28003x/driverlib/dcc.
    2298                      .dwattr $C$DW$213, DW_AT_decl_line(0x8a)
    2299                      .dwattr $C$DW$213, DW_AT_decl_column(0x05)
    2300              
    2301              $C$DW$214       .dwtag  DW_TAG_enumerator
    2302                      .dwattr $C$DW$214, DW_AT_name("DCC_COUNT1SRC_SYSCLK")
    2303                      .dwattr $C$DW$214, DW_AT_const_value(0x06)
    2304                      .dwattr $C$DW$214, DW_AT_decl_file("D:/ti/c2000/C2000Ware_5_04_00_00/driverlib/f28003x/driverlib/dcc.
    2305                      .dwattr $C$DW$214, DW_AT_decl_line(0x8b)
    2306                      .dwattr $C$DW$214, DW_AT_decl_column(0x05)
    2307              
    2308              $C$DW$215       .dwtag  DW_TAG_enumerator
    2309                      .dwattr $C$DW$215, DW_AT_name("DCC_COUNT1SRC_AUXCLKIN")
    2310                      .dwattr $C$DW$215, DW_AT_const_value(0x0a)
    2311                      .dwattr $C$DW$215, DW_AT_decl_file("D:/ti/c2000/C2000Ware_5_04_00_00/driverlib/f28003x/driverlib/dcc.
    2312                      .dwattr $C$DW$215, DW_AT_decl_line(0x8c)
    2313                      .dwattr $C$DW$215, DW_AT_decl_column(0x05)
    2314              
    2315              $C$DW$216       .dwtag  DW_TAG_enumerator
    2316                      .dwattr $C$DW$216, DW_AT_name("DCC_COUNT1SRC_EPWM")
    2317                      .dwattr $C$DW$216, DW_AT_const_value(0x0b)
    2318                      .dwattr $C$DW$216, DW_AT_decl_file("D:/ti/c2000/C2000Ware_5_04_00_00/driverlib/f28003x/driverlib/dcc.
    2319                      .dwattr $C$DW$216, DW_AT_decl_line(0x8d)
    2320                      .dwattr $C$DW$216, DW_AT_decl_column(0x05)
    2321              
    2322              $C$DW$217       .dwtag  DW_TAG_enumerator
    2323                      .dwattr $C$DW$217, DW_AT_name("DCC_COUNT1SRC_ADCCLK")
    2324                      .dwattr $C$DW$217, DW_AT_const_value(0x0d)
    2325                      .dwattr $C$DW$217, DW_AT_decl_file("D:/ti/c2000/C2000Ware_5_04_00_00/driverlib/f28003x/driverlib/dcc.
    2326                      .dwattr $C$DW$217, DW_AT_decl_line(0x8e)
    2327                      .dwattr $C$DW$217, DW_AT_decl_column(0x05)
    2328              
    2329              $C$DW$218       .dwtag  DW_TAG_enumerator
    2330                      .dwattr $C$DW$218, DW_AT_name("DCC_COUNT1SRC_WDCLK")
    2331                      .dwattr $C$DW$218, DW_AT_const_value(0x0e)
    2332                      .dwattr $C$DW$218, DW_AT_decl_file("D:/ti/c2000/C2000Ware_5_04_00_00/driverlib/f28003x/driverlib/dcc.
    2333                      .dwattr $C$DW$218, DW_AT_decl_line(0x8f)
TMS320C2000 Assembler PC v22.6.1 Wed Jan 22 15:42:10 2025

Copyright (c) 1996-2018 Texas Instruments Incorporated
C:\Users\Admin\AppData\Local\Temp\{72586B83-0C91-403C-A2FF-A215999388C2} PAGE   48

    2334                      .dwattr $C$DW$218, DW_AT_decl_column(0x05)
    2335              
    2336              $C$DW$219       .dwtag  DW_TAG_enumerator
    2337                      .dwattr $C$DW$219, DW_AT_name("DCC_COUNT1SRC_CANX")
    2338                      .dwattr $C$DW$219, DW_AT_const_value(0x0f)
    2339                      .dwattr $C$DW$219, DW_AT_decl_file("D:/ti/c2000/C2000Ware_5_04_00_00/driverlib/f28003x/driverlib/dcc.
    2340                      .dwattr $C$DW$219, DW_AT_decl_line(0x90)
    2341                      .dwattr $C$DW$219, DW_AT_decl_column(0x05)
    2342              
    2343              $C$DW$220       .dwtag  DW_TAG_enumerator
    2344                      .dwattr $C$DW$220, DW_AT_name("DCC_COUNT1SRC_SYSAPLL_CLK_AUX")
    2345                      .dwattr $C$DW$220, DW_AT_const_value(0x16)
    2346                      .dwattr $C$DW$220, DW_AT_decl_file("D:/ti/c2000/C2000Ware_5_04_00_00/driverlib/f28003x/driverlib/dcc.
    2347                      .dwattr $C$DW$220, DW_AT_decl_line(0x91)
    2348                      .dwattr $C$DW$220, DW_AT_decl_column(0x05)
    2349              
    2350                      .dwattr $C$DW$T$23, DW_AT_decl_file("D:/ti/c2000/C2000Ware_5_04_00_00/driverlib/f28003x/driverlib/dcc
    2351                      .dwattr $C$DW$T$23, DW_AT_decl_line(0x87)
    2352                      .dwattr $C$DW$T$23, DW_AT_decl_column(0x01)
    2353                      .dwendtag $C$DW$T$23
    2354              
    2355                      .dwendtag $C$DW$TU$23
    2356              
    2357              
    2358              $C$DW$TU$24     .dwtag  DW_TAG_type_unit
    2359                      .dwmtype  $C$DW$T$24
    2360              $C$DW$T$24      .dwtag  DW_TAG_typedef
    2361                      .dwattr $C$DW$T$24, DW_AT_name("DCC_Count1ClockSource")
    2362                      .dwattr $C$DW$T$24, DW_AT_type(*$C$DW$T$23)
    2363                      .dwattr $C$DW$T$24, DW_AT_decl_file("D:/ti/c2000/C2000Ware_5_04_00_00/driverlib/f28003x/driverlib/dcc
    2364                      .dwattr $C$DW$T$24, DW_AT_decl_line(0x92)
    2365                      .dwattr $C$DW$T$24, DW_AT_decl_column(0x03)
    2366              
    2367                      .dwendtag $C$DW$TU$24
    2368              
    2369              
    2370              $C$DW$TU$25     .dwtag  DW_TAG_type_unit
    2371                      .dwmtype  $C$DW$T$25
    2372              
    2373              $C$DW$T$25      .dwtag  DW_TAG_enumeration_type
    2374                      .dwattr $C$DW$T$25, DW_AT_byte_size(0x01)
    2375              $C$DW$221       .dwtag  DW_TAG_enumerator
    2376                      .dwattr $C$DW$221, DW_AT_name("DCC_COUNT0SRC_XTAL")
    2377                      .dwattr $C$DW$221, DW_AT_const_value(0x00)
    2378                      .dwattr $C$DW$221, DW_AT_decl_file("D:/ti/c2000/C2000Ware_5_04_00_00/driverlib/f28003x/driverlib/dcc.
    2379                      .dwattr $C$DW$221, DW_AT_decl_line(0x9c)
    2380                      .dwattr $C$DW$221, DW_AT_decl_column(0x05)
    2381              
    2382              $C$DW$222       .dwtag  DW_TAG_enumerator
    2383                      .dwattr $C$DW$222, DW_AT_name("DCC_COUNT0SRC_INTOSC1")
    2384                      .dwattr $C$DW$222, DW_AT_const_value(0x01)
    2385                      .dwattr $C$DW$222, DW_AT_decl_file("D:/ti/c2000/C2000Ware_5_04_00_00/driverlib/f28003x/driverlib/dcc.
    2386                      .dwattr $C$DW$222, DW_AT_decl_line(0x9d)
    2387                      .dwattr $C$DW$222, DW_AT_decl_column(0x05)
    2388              
TMS320C2000 Assembler PC v22.6.1 Wed Jan 22 15:42:10 2025

Copyright (c) 1996-2018 Texas Instruments Incorporated
C:\Users\Admin\AppData\Local\Temp\{72586B83-0C91-403C-A2FF-A215999388C2} PAGE   49

    2389              $C$DW$223       .dwtag  DW_TAG_enumerator
    2390                      .dwattr $C$DW$223, DW_AT_name("DCC_COUNT0SRC_INTOSC2")
    2391                      .dwattr $C$DW$223, DW_AT_const_value(0x02)
    2392                      .dwattr $C$DW$223, DW_AT_decl_file("D:/ti/c2000/C2000Ware_5_04_00_00/driverlib/f28003x/driverlib/dcc.
    2393                      .dwattr $C$DW$223, DW_AT_decl_line(0x9e)
    2394                      .dwattr $C$DW$223, DW_AT_decl_column(0x05)
    2395              
    2396              $C$DW$224       .dwtag  DW_TAG_enumerator
    2397                      .dwattr $C$DW$224, DW_AT_name("DCC_COUNT0SRC_SYSCLK")
    2398                      .dwattr $C$DW$224, DW_AT_const_value(0x05)
    2399                      .dwattr $C$DW$224, DW_AT_decl_file("D:/ti/c2000/C2000Ware_5_04_00_00/driverlib/f28003x/driverlib/dcc.
    2400                      .dwattr $C$DW$224, DW_AT_decl_line(0x9f)
    2401                      .dwattr $C$DW$224, DW_AT_decl_column(0x05)
    2402              
    2403              $C$DW$225       .dwtag  DW_TAG_enumerator
    2404                      .dwattr $C$DW$225, DW_AT_name("DCC_COUNT0SRC_AUXCLK")
    2405                      .dwattr $C$DW$225, DW_AT_const_value(0x08)
    2406                      .dwattr $C$DW$225, DW_AT_decl_file("D:/ti/c2000/C2000Ware_5_04_00_00/driverlib/f28003x/driverlib/dcc.
    2407                      .dwattr $C$DW$225, DW_AT_decl_line(0xa0)
    2408                      .dwattr $C$DW$225, DW_AT_decl_column(0x05)
    2409              
    2410              $C$DW$226       .dwtag  DW_TAG_enumerator
    2411                      .dwattr $C$DW$226, DW_AT_name("DCC_COUNT0SRC_XBAR")
    2412                      .dwattr $C$DW$226, DW_AT_const_value(0x0c)
    2413                      .dwattr $C$DW$226, DW_AT_decl_file("D:/ti/c2000/C2000Ware_5_04_00_00/driverlib/f28003x/driverlib/dcc.
    2414                      .dwattr $C$DW$226, DW_AT_decl_line(0xa1)
    2415                      .dwattr $C$DW$226, DW_AT_decl_column(0x05)
    2416              
    2417                      .dwattr $C$DW$T$25, DW_AT_decl_file("D:/ti/c2000/C2000Ware_5_04_00_00/driverlib/f28003x/driverlib/dcc
    2418                      .dwattr $C$DW$T$25, DW_AT_decl_line(0x9b)
    2419                      .dwattr $C$DW$T$25, DW_AT_decl_column(0x01)
    2420                      .dwendtag $C$DW$T$25
    2421              
    2422                      .dwendtag $C$DW$TU$25
    2423              
    2424              
    2425              $C$DW$TU$26     .dwtag  DW_TAG_type_unit
    2426                      .dwmtype  $C$DW$T$26
    2427              $C$DW$T$26      .dwtag  DW_TAG_typedef
    2428                      .dwattr $C$DW$T$26, DW_AT_name("DCC_Count0ClockSource")
    2429                      .dwattr $C$DW$T$26, DW_AT_type(*$C$DW$T$25)
    2430                      .dwattr $C$DW$T$26, DW_AT_decl_file("D:/ti/c2000/C2000Ware_5_04_00_00/driverlib/f28003x/driverlib/dcc
    2431                      .dwattr $C$DW$T$26, DW_AT_decl_line(0xa2)
    2432                      .dwattr $C$DW$T$26, DW_AT_decl_column(0x03)
    2433              
    2434                      .dwendtag $C$DW$TU$26
    2435              
    2436              
    2437              $C$DW$TU$27     .dwtag  DW_TAG_type_unit
    2438                      .dwmtype  $C$DW$T$27
    2439              
    2440              $C$DW$T$27      .dwtag  DW_TAG_enumeration_type
    2441                      .dwattr $C$DW$T$27, DW_AT_byte_size(0x01)
    2442              $C$DW$227       .dwtag  DW_TAG_enumerator
    2443                      .dwattr $C$DW$227, DW_AT_name("GPIO_PORT_A")
TMS320C2000 Assembler PC v22.6.1 Wed Jan 22 15:42:10 2025

Copyright (c) 1996-2018 Texas Instruments Incorporated
C:\Users\Admin\AppData\Local\Temp\{72586B83-0C91-403C-A2FF-A215999388C2} PAGE   50

    2444                      .dwattr $C$DW$227, DW_AT_const_value(0x00)
    2445                      .dwattr $C$DW$227, DW_AT_decl_file("D:/ti/c2000/C2000Ware_5_04_00_00/driverlib/f28003x/driverlib/gpio
    2446                      .dwattr $C$DW$227, DW_AT_decl_line(0xbd)
    2447                      .dwattr $C$DW$227, DW_AT_decl_column(0x05)
    2448              
    2449              $C$DW$228       .dwtag  DW_TAG_enumerator
    2450                      .dwattr $C$DW$228, DW_AT_name("GPIO_PORT_B")
    2451                      .dwattr $C$DW$228, DW_AT_const_value(0x01)
    2452                      .dwattr $C$DW$228, DW_AT_decl_file("D:/ti/c2000/C2000Ware_5_04_00_00/driverlib/f28003x/driverlib/gpio
    2453                      .dwattr $C$DW$228, DW_AT_decl_line(0xbe)
    2454                      .dwattr $C$DW$228, DW_AT_decl_column(0x05)
    2455              
    2456              $C$DW$229       .dwtag  DW_TAG_enumerator
    2457                      .dwattr $C$DW$229, DW_AT_name("GPIO_PORT_H")
    2458                      .dwattr $C$DW$229, DW_AT_const_value(0x07)
    2459                      .dwattr $C$DW$229, DW_AT_decl_file("D:/ti/c2000/C2000Ware_5_04_00_00/driverlib/f28003x/driverlib/gpio
    2460                      .dwattr $C$DW$229, DW_AT_decl_line(0xbf)
    2461                      .dwattr $C$DW$229, DW_AT_decl_column(0x05)
    2462              
    2463                      .dwattr $C$DW$T$27, DW_AT_decl_file("D:/ti/c2000/C2000Ware_5_04_00_00/driverlib/f28003x/driverlib/gpi
    2464                      .dwattr $C$DW$T$27, DW_AT_decl_line(0xbc)
    2465                      .dwattr $C$DW$T$27, DW_AT_decl_column(0x01)
    2466                      .dwendtag $C$DW$T$27
    2467              
    2468                      .dwendtag $C$DW$TU$27
    2469              
    2470              
    2471              $C$DW$TU$28     .dwtag  DW_TAG_type_unit
    2472                      .dwmtype  $C$DW$T$28
    2473              $C$DW$T$28      .dwtag  DW_TAG_typedef
    2474                      .dwattr $C$DW$T$28, DW_AT_name("GPIO_Port")
    2475                      .dwattr $C$DW$T$28, DW_AT_type(*$C$DW$T$27)
    2476                      .dwattr $C$DW$T$28, DW_AT_decl_file("D:/ti/c2000/C2000Ware_5_04_00_00/driverlib/f28003x/driverlib/gpi
    2477                      .dwattr $C$DW$T$28, DW_AT_decl_line(0xc0)
    2478                      .dwattr $C$DW$T$28, DW_AT_decl_column(0x03)
    2479              
    2480                      .dwendtag $C$DW$TU$28
    2481              
    2482              
    2483              $C$DW$TU$29     .dwtag  DW_TAG_type_unit
    2484                      .dwmtype  $C$DW$T$29
    2485              
    2486              $C$DW$T$29      .dwtag  DW_TAG_enumeration_type
    2487                      .dwattr $C$DW$T$29, DW_AT_byte_size(0x01)
    2488              $C$DW$230       .dwtag  DW_TAG_enumerator
    2489                      .dwattr $C$DW$230, DW_AT_name("GPIO_ANALOG_DISABLED")
    2490                      .dwattr $C$DW$230, DW_AT_const_value(0x00)
    2491                      .dwattr $C$DW$230, DW_AT_decl_file("D:/ti/c2000/C2000Ware_5_04_00_00/driverlib/f28003x/driverlib/gpio
    2492                      .dwattr $C$DW$230, DW_AT_decl_line(0xa5)
    2493                      .dwattr $C$DW$230, DW_AT_decl_column(0x05)
    2494              
    2495              $C$DW$231       .dwtag  DW_TAG_enumerator
    2496                      .dwattr $C$DW$231, DW_AT_name("GPIO_ANALOG_ENABLED")
    2497                      .dwattr $C$DW$231, DW_AT_const_value(0x01)
    2498                      .dwattr $C$DW$231, DW_AT_decl_file("D:/ti/c2000/C2000Ware_5_04_00_00/driverlib/f28003x/driverlib/gpio
TMS320C2000 Assembler PC v22.6.1 Wed Jan 22 15:42:10 2025

Copyright (c) 1996-2018 Texas Instruments Incorporated
C:\Users\Admin\AppData\Local\Temp\{72586B83-0C91-403C-A2FF-A215999388C2} PAGE   51

    2499                      .dwattr $C$DW$231, DW_AT_decl_line(0xa6)
    2500                      .dwattr $C$DW$231, DW_AT_decl_column(0x05)
    2501              
    2502                      .dwattr $C$DW$T$29, DW_AT_decl_file("D:/ti/c2000/C2000Ware_5_04_00_00/driverlib/f28003x/driverlib/gpi
    2503                      .dwattr $C$DW$T$29, DW_AT_decl_line(0xa4)
    2504                      .dwattr $C$DW$T$29, DW_AT_decl_column(0x01)
    2505                      .dwendtag $C$DW$T$29
    2506              
    2507                      .dwendtag $C$DW$TU$29
    2508              
    2509              
    2510              $C$DW$TU$30     .dwtag  DW_TAG_type_unit
    2511                      .dwmtype  $C$DW$T$30
    2512              $C$DW$T$30      .dwtag  DW_TAG_typedef
    2513                      .dwattr $C$DW$T$30, DW_AT_name("GPIO_AnalogMode")
    2514                      .dwattr $C$DW$T$30, DW_AT_type(*$C$DW$T$29)
    2515                      .dwattr $C$DW$T$30, DW_AT_decl_file("D:/ti/c2000/C2000Ware_5_04_00_00/driverlib/f28003x/driverlib/gpi
    2516                      .dwattr $C$DW$T$30, DW_AT_decl_line(0xa7)
    2517                      .dwattr $C$DW$T$30, DW_AT_decl_column(0x03)
    2518              
    2519                      .dwendtag $C$DW$TU$30
    2520              
    2521              
    2522              $C$DW$TU$2      .dwtag  DW_TAG_type_unit
    2523                      .dwmtype  $C$DW$T$2
    2524              $C$DW$T$2       .dwtag  DW_TAG_unspecified_type
    2525                      .dwattr $C$DW$T$2, DW_AT_name("void")
    2526              
    2527                      .dwendtag $C$DW$TU$2
    2528              
    2529              
    2530              $C$DW$TU$4      .dwtag  DW_TAG_type_unit
    2531                      .dwmtype  $C$DW$T$4
    2532              $C$DW$T$4       .dwtag  DW_TAG_base_type
    2533                      .dwattr $C$DW$T$4, DW_AT_encoding(DW_ATE_boolean)
    2534                      .dwattr $C$DW$T$4, DW_AT_name("bool")
    2535                      .dwattr $C$DW$T$4, DW_AT_byte_size(0x01)
    2536              
    2537                      .dwendtag $C$DW$TU$4
    2538              
    2539              
    2540              $C$DW$TU$5      .dwtag  DW_TAG_type_unit
    2541                      .dwmtype  $C$DW$T$5
    2542              $C$DW$T$5       .dwtag  DW_TAG_base_type
    2543                      .dwattr $C$DW$T$5, DW_AT_encoding(DW_ATE_signed_char)
    2544                      .dwattr $C$DW$T$5, DW_AT_name("signed char")
    2545                      .dwattr $C$DW$T$5, DW_AT_byte_size(0x01)
    2546              
    2547                      .dwendtag $C$DW$TU$5
    2548              
    2549              
    2550              $C$DW$TU$6      .dwtag  DW_TAG_type_unit
    2551                      .dwmtype  $C$DW$T$6
    2552              $C$DW$T$6       .dwtag  DW_TAG_base_type
    2553                      .dwattr $C$DW$T$6, DW_AT_encoding(DW_ATE_unsigned_char)
TMS320C2000 Assembler PC v22.6.1 Wed Jan 22 15:42:10 2025

Copyright (c) 1996-2018 Texas Instruments Incorporated
C:\Users\Admin\AppData\Local\Temp\{72586B83-0C91-403C-A2FF-A215999388C2} PAGE   52

    2554                      .dwattr $C$DW$T$6, DW_AT_name("unsigned char")
    2555                      .dwattr $C$DW$T$6, DW_AT_byte_size(0x01)
    2556              
    2557                      .dwendtag $C$DW$TU$6
    2558              
    2559              
    2560              $C$DW$TU$7      .dwtag  DW_TAG_type_unit
    2561                      .dwmtype  $C$DW$T$7
    2562              $C$DW$T$7       .dwtag  DW_TAG_base_type
    2563                      .dwattr $C$DW$T$7, DW_AT_encoding(DW_ATE_signed_char)
    2564                      .dwattr $C$DW$T$7, DW_AT_name("wchar_t")
    2565                      .dwattr $C$DW$T$7, DW_AT_byte_size(0x02)
    2566              
    2567                      .dwendtag $C$DW$TU$7
    2568              
    2569              
    2570              $C$DW$TU$8      .dwtag  DW_TAG_type_unit
    2571                      .dwmtype  $C$DW$T$8
    2572              $C$DW$T$8       .dwtag  DW_TAG_base_type
    2573                      .dwattr $C$DW$T$8, DW_AT_encoding(DW_ATE_signed)
    2574                      .dwattr $C$DW$T$8, DW_AT_name("short")
    2575                      .dwattr $C$DW$T$8, DW_AT_byte_size(0x01)
    2576              
    2577                      .dwendtag $C$DW$TU$8
    2578              
    2579              
    2580              $C$DW$TU$9      .dwtag  DW_TAG_type_unit
    2581                      .dwmtype  $C$DW$T$9
    2582              $C$DW$T$9       .dwtag  DW_TAG_base_type
    2583                      .dwattr $C$DW$T$9, DW_AT_encoding(DW_ATE_unsigned)
    2584                      .dwattr $C$DW$T$9, DW_AT_name("unsigned short")
    2585                      .dwattr $C$DW$T$9, DW_AT_byte_size(0x01)
    2586              
    2587                      .dwendtag $C$DW$TU$9
    2588              
    2589              
    2590              $C$DW$TU$10     .dwtag  DW_TAG_type_unit
    2591                      .dwmtype  $C$DW$T$10
    2592              $C$DW$T$10      .dwtag  DW_TAG_base_type
    2593                      .dwattr $C$DW$T$10, DW_AT_encoding(DW_ATE_signed)
    2594                      .dwattr $C$DW$T$10, DW_AT_name("int")
    2595                      .dwattr $C$DW$T$10, DW_AT_byte_size(0x01)
    2596              
    2597                      .dwendtag $C$DW$TU$10
    2598              
    2599              
    2600              $C$DW$TU$11     .dwtag  DW_TAG_type_unit
    2601                      .dwmtype  $C$DW$T$11
    2602              $C$DW$T$11      .dwtag  DW_TAG_base_type
    2603                      .dwattr $C$DW$T$11, DW_AT_encoding(DW_ATE_unsigned)
    2604                      .dwattr $C$DW$T$11, DW_AT_name("unsigned int")
    2605                      .dwattr $C$DW$T$11, DW_AT_byte_size(0x01)
    2606              
    2607                      .dwendtag $C$DW$TU$11
    2608              
TMS320C2000 Assembler PC v22.6.1 Wed Jan 22 15:42:10 2025

Copyright (c) 1996-2018 Texas Instruments Incorporated
C:\Users\Admin\AppData\Local\Temp\{72586B83-0C91-403C-A2FF-A215999388C2} PAGE   53

    2609              
    2610              $C$DW$TU$52     .dwtag  DW_TAG_type_unit
    2611                      .dwmtype  $C$DW$T$52
    2612              $C$DW$T$52      .dwtag  DW_TAG_typedef
    2613                      .dwattr $C$DW$T$52, DW_AT_name("__uint16_t")
    2614                      .dwattr $C$DW$T$52, DW_AT_type(*$C$DW$T$11)
    2615                      .dwattr $C$DW$T$52, DW_AT_decl_file("D:/ti/ccs1281/ccs/tools/compiler/ti-cgt-c2000_22.6.1.LTS/include
    2616                      .dwattr $C$DW$T$52, DW_AT_decl_line(0x41)
    2617                      .dwattr $C$DW$T$52, DW_AT_decl_column(0x1c)
    2618              
    2619                      .dwendtag $C$DW$TU$52
    2620              
    2621              
    2622              $C$DW$TU$53     .dwtag  DW_TAG_type_unit
    2623                      .dwmtype  $C$DW$T$53
    2624              $C$DW$T$53      .dwtag  DW_TAG_typedef
    2625                      .dwattr $C$DW$T$53, DW_AT_name("uint16_t")
    2626                      .dwattr $C$DW$T$53, DW_AT_type(*$C$DW$T$52)
    2627                      .dwattr $C$DW$T$53, DW_AT_decl_file("D:/ti/ccs1281/ccs/tools/compiler/ti-cgt-c2000_22.6.1.LTS/include
    2628                      .dwattr $C$DW$T$53, DW_AT_decl_line(0x41)
    2629                      .dwattr $C$DW$T$53, DW_AT_decl_column(0x15)
    2630              
    2631                      .dwendtag $C$DW$TU$53
    2632              
    2633              
    2634              $C$DW$TU$12     .dwtag  DW_TAG_type_unit
    2635                      .dwmtype  $C$DW$T$12
    2636              $C$DW$T$12      .dwtag  DW_TAG_base_type
    2637                      .dwattr $C$DW$T$12, DW_AT_encoding(DW_ATE_signed)
    2638                      .dwattr $C$DW$T$12, DW_AT_name("long")
    2639                      .dwattr $C$DW$T$12, DW_AT_byte_size(0x02)
    2640              
    2641                      .dwendtag $C$DW$TU$12
    2642              
    2643              
    2644              $C$DW$TU$13     .dwtag  DW_TAG_type_unit
    2645                      .dwmtype  $C$DW$T$13
    2646              $C$DW$T$13      .dwtag  DW_TAG_base_type
    2647                      .dwattr $C$DW$T$13, DW_AT_encoding(DW_ATE_unsigned)
    2648                      .dwattr $C$DW$T$13, DW_AT_name("unsigned long")
    2649                      .dwattr $C$DW$T$13, DW_AT_byte_size(0x02)
    2650              
    2651                      .dwendtag $C$DW$TU$13
    2652              
    2653              
    2654              $C$DW$TU$37     .dwtag  DW_TAG_type_unit
    2655                      .dwmtype  $C$DW$T$37
    2656              $C$DW$T$37      .dwtag  DW_TAG_typedef
    2657                      .dwattr $C$DW$T$37, DW_AT_name("__uint32_t")
    2658                      .dwattr $C$DW$T$37, DW_AT_type(*$C$DW$T$13)
    2659                      .dwattr $C$DW$T$37, DW_AT_decl_file("D:/ti/ccs1281/ccs/tools/compiler/ti-cgt-c2000_22.6.1.LTS/include
    2660                      .dwattr $C$DW$T$37, DW_AT_decl_line(0x43)
    2661                      .dwattr $C$DW$T$37, DW_AT_decl_column(0x1c)
    2662              
    2663                      .dwendtag $C$DW$TU$37
TMS320C2000 Assembler PC v22.6.1 Wed Jan 22 15:42:10 2025

Copyright (c) 1996-2018 Texas Instruments Incorporated
C:\Users\Admin\AppData\Local\Temp\{72586B83-0C91-403C-A2FF-A215999388C2} PAGE   54

    2664              
    2665              
    2666              $C$DW$TU$38     .dwtag  DW_TAG_type_unit
    2667                      .dwmtype  $C$DW$T$38
    2668              $C$DW$T$38      .dwtag  DW_TAG_typedef
    2669                      .dwattr $C$DW$T$38, DW_AT_name("uint32_t")
    2670                      .dwattr $C$DW$T$38, DW_AT_type(*$C$DW$T$37)
    2671                      .dwattr $C$DW$T$38, DW_AT_decl_file("D:/ti/ccs1281/ccs/tools/compiler/ti-cgt-c2000_22.6.1.LTS/include
    2672                      .dwattr $C$DW$T$38, DW_AT_decl_line(0x46)
    2673                      .dwattr $C$DW$T$38, DW_AT_decl_column(0x15)
    2674              
    2675                      .dwendtag $C$DW$TU$38
    2676              
    2677              
    2678              $C$DW$TU$61     .dwtag  DW_TAG_type_unit
    2679                      .dwmtype  $C$DW$T$61
    2680              $C$DW$232       .dwtag  DW_TAG_TI_far_type
    2681                      .dwattr $C$DW$232, DW_AT_type(*$C$DW$T$38)
    2682              
    2683              $C$DW$T$61      .dwtag  DW_TAG_volatile_type
    2684                      .dwattr $C$DW$T$61, DW_AT_type(*$C$DW$232)
    2685              
    2686                      .dwendtag $C$DW$TU$61
    2687              
    2688              
    2689              $C$DW$TU$62     .dwtag  DW_TAG_type_unit
    2690                      .dwmtype  $C$DW$T$62
    2691              $C$DW$T$62      .dwtag  DW_TAG_pointer_type
    2692                      .dwattr $C$DW$T$62, DW_AT_type(*$C$DW$T$61)
    2693                      .dwattr $C$DW$T$62, DW_AT_address_class(0x20)
    2694              
    2695                      .dwendtag $C$DW$TU$62
    2696              
    2697              
    2698              $C$DW$TU$14     .dwtag  DW_TAG_type_unit
    2699                      .dwmtype  $C$DW$T$14
    2700              $C$DW$T$14      .dwtag  DW_TAG_base_type
    2701                      .dwattr $C$DW$T$14, DW_AT_encoding(DW_ATE_signed)
    2702                      .dwattr $C$DW$T$14, DW_AT_name("long long")
    2703                      .dwattr $C$DW$T$14, DW_AT_byte_size(0x04)
    2704              
    2705                      .dwendtag $C$DW$TU$14
    2706              
    2707              
    2708              $C$DW$TU$15     .dwtag  DW_TAG_type_unit
    2709                      .dwmtype  $C$DW$T$15
    2710              $C$DW$T$15      .dwtag  DW_TAG_base_type
    2711                      .dwattr $C$DW$T$15, DW_AT_encoding(DW_ATE_unsigned)
    2712                      .dwattr $C$DW$T$15, DW_AT_name("unsigned long long")
    2713                      .dwattr $C$DW$T$15, DW_AT_byte_size(0x04)
    2714              
    2715                      .dwendtag $C$DW$TU$15
    2716              
    2717              
    2718              $C$DW$TU$16     .dwtag  DW_TAG_type_unit
TMS320C2000 Assembler PC v22.6.1 Wed Jan 22 15:42:10 2025

Copyright (c) 1996-2018 Texas Instruments Incorporated
C:\Users\Admin\AppData\Local\Temp\{72586B83-0C91-403C-A2FF-A215999388C2} PAGE   55

    2719                      .dwmtype  $C$DW$T$16
    2720              $C$DW$T$16      .dwtag  DW_TAG_base_type
    2721                      .dwattr $C$DW$T$16, DW_AT_encoding(DW_ATE_float)
    2722                      .dwattr $C$DW$T$16, DW_AT_name("float")
    2723                      .dwattr $C$DW$T$16, DW_AT_byte_size(0x02)
    2724              
    2725                      .dwendtag $C$DW$TU$16
    2726              
    2727              
    2728              $C$DW$TU$63     .dwtag  DW_TAG_type_unit
    2729                      .dwmtype  $C$DW$T$63
    2730              $C$DW$T$63      .dwtag  DW_TAG_typedef
    2731                      .dwattr $C$DW$T$63, DW_AT_name("float32_t")
    2732                      .dwattr $C$DW$T$63, DW_AT_type(*$C$DW$T$16)
    2733                      .dwattr $C$DW$T$63, DW_AT_decl_file("D:\ti\c2000\C2000Ware_5_04_00_00\driverlib\f28003x\driverlib\inc
    2734                      .dwattr $C$DW$T$63, DW_AT_decl_line(0x64)
    2735                      .dwattr $C$DW$T$63, DW_AT_decl_column(0x17)
    2736              
    2737                      .dwendtag $C$DW$TU$63
    2738              
    2739              
    2740              $C$DW$TU$17     .dwtag  DW_TAG_type_unit
    2741                      .dwmtype  $C$DW$T$17
    2742              $C$DW$T$17      .dwtag  DW_TAG_base_type
    2743                      .dwattr $C$DW$T$17, DW_AT_encoding(DW_ATE_float)
    2744                      .dwattr $C$DW$T$17, DW_AT_name("double")
    2745                      .dwattr $C$DW$T$17, DW_AT_byte_size(0x04)
    2746              
    2747                      .dwendtag $C$DW$TU$17
    2748              
    2749              
    2750              $C$DW$TU$18     .dwtag  DW_TAG_type_unit
    2751                      .dwmtype  $C$DW$T$18
    2752              $C$DW$T$18      .dwtag  DW_TAG_base_type
    2753                      .dwattr $C$DW$T$18, DW_AT_encoding(DW_ATE_float)
    2754                      .dwattr $C$DW$T$18, DW_AT_name("long double")
    2755                      .dwattr $C$DW$T$18, DW_AT_byte_size(0x04)
    2756              
    2757                      .dwendtag $C$DW$TU$18
    2758              
    2759              
    2760              $C$DW$TU$48     .dwtag  DW_TAG_type_unit
    2761                      .dwmtype  $C$DW$T$48
    2762              $C$DW$233       .dwtag  DW_TAG_TI_far_type
    2763                      .dwattr $C$DW$233, DW_AT_type(*$C$DW$T$5)
    2764              
    2765              $C$DW$T$48      .dwtag  DW_TAG_const_type
    2766                      .dwattr $C$DW$T$48, DW_AT_type(*$C$DW$233)
    2767              
    2768                      .dwendtag $C$DW$TU$48
    2769              
    2770              
    2771              $C$DW$TU$49     .dwtag  DW_TAG_type_unit
    2772                      .dwmtype  $C$DW$T$49
    2773              $C$DW$T$49      .dwtag  DW_TAG_pointer_type
TMS320C2000 Assembler PC v22.6.1 Wed Jan 22 15:42:10 2025

Copyright (c) 1996-2018 Texas Instruments Incorporated
C:\Users\Admin\AppData\Local\Temp\{72586B83-0C91-403C-A2FF-A215999388C2} PAGE   56

    2774                      .dwattr $C$DW$T$49, DW_AT_type(*$C$DW$T$48)
    2775                      .dwattr $C$DW$T$49, DW_AT_address_class(0x20)
    2776              
    2777                      .dwendtag $C$DW$TU$49
    2778              
    2779              
    2780              $C$DW$TU$64     .dwtag  DW_TAG_type_unit
    2781                      .dwmtype  $C$DW$T$64
    2782              $C$DW$T$64      .dwtag  DW_TAG_base_type
    2783                      .dwattr $C$DW$T$64, DW_AT_encoding(DW_ATE_unsigned_char)
    2784                      .dwattr $C$DW$T$64, DW_AT_name("unsigned char")
    2785                      .dwattr $C$DW$T$64, DW_AT_byte_size(0x01)
    2786              
    2787                      .dwendtag $C$DW$TU$64
    2788              

No Assembly Errors, No Assembly Warnings
